
kernel.elf:     file format elf64-littleriscv


Disassembly of section .text:

0000000080200000 <_start>:
    80200000:	07e00117          	auipc	sp,0x7e00
    80200004:	00010113          	mv	sp,sp
    80200008:	00004297          	auipc	t0,0x4
    8020000c:	dd828293          	addi	t0,t0,-552 # 80203de0 <kernel_stack>
    80200010:	00010317          	auipc	t1,0x10
    80200014:	3c030313          	addi	t1,t1,960 # 802103d0 <__bss_end>
    80200018:	0072f393          	andi	t2,t0,7
    8020001c:	00038c63          	beqz	t2,80200034 <_start+0x34>
    80200020:	0262f263          	bgeu	t0,t1,80200044 <_start+0x44>
    80200024:	00028023          	sb	zero,0(t0)
    80200028:	00128293          	addi	t0,t0,1
    8020002c:	0072f393          	andi	t2,t0,7
    80200030:	fe0398e3          	bnez	t2,80200020 <_start+0x20>
    80200034:	0062f863          	bgeu	t0,t1,80200044 <_start+0x44>
    80200038:	0002b023          	sd	zero,0(t0)
    8020003c:	00828293          	addi	t0,t0,8
    80200040:	ff5ff06f          	j	80200034 <_start+0x34>
    80200044:	0890006f          	j	802008cc <main>

0000000080200048 <trap_entry>:
    80200048:	ee810113          	addi	sp,sp,-280 # 87fffee8 <__stack_bottom+0xee8>
    8020004c:	02513023          	sd	t0,32(sp)
    80200050:	00113023          	sd	ra,0(sp)
    80200054:	00313823          	sd	gp,16(sp)
    80200058:	00413c23          	sd	tp,24(sp)
    8020005c:	11810293          	addi	t0,sp,280
    80200060:	00513423          	sd	t0,8(sp)
    80200064:	02613423          	sd	t1,40(sp)
    80200068:	02713823          	sd	t2,48(sp)
    8020006c:	02813c23          	sd	s0,56(sp)
    80200070:	04913023          	sd	s1,64(sp)
    80200074:	04a13423          	sd	a0,72(sp)
    80200078:	04b13823          	sd	a1,80(sp)
    8020007c:	04c13c23          	sd	a2,88(sp)
    80200080:	06d13023          	sd	a3,96(sp)
    80200084:	06e13423          	sd	a4,104(sp)
    80200088:	06f13823          	sd	a5,112(sp)
    8020008c:	07013c23          	sd	a6,120(sp)
    80200090:	09113023          	sd	a7,128(sp)
    80200094:	09213423          	sd	s2,136(sp)
    80200098:	09313823          	sd	s3,144(sp)
    8020009c:	09413c23          	sd	s4,152(sp)
    802000a0:	0b513023          	sd	s5,160(sp)
    802000a4:	0b613423          	sd	s6,168(sp)
    802000a8:	0b713823          	sd	s7,176(sp)
    802000ac:	0b813c23          	sd	s8,184(sp)
    802000b0:	0d913023          	sd	s9,192(sp)
    802000b4:	0da13423          	sd	s10,200(sp)
    802000b8:	0db13823          	sd	s11,208(sp)
    802000bc:	0dc13c23          	sd	t3,216(sp)
    802000c0:	0fd13023          	sd	t4,224(sp)
    802000c4:	0fe13423          	sd	t5,232(sp)
    802000c8:	0ff13823          	sd	t6,240(sp)
    802000cc:	14102373          	csrr	t1,sepc
    802000d0:	0e613c23          	sd	t1,248(sp)
    802000d4:	10002373          	csrr	t1,sstatus
    802000d8:	10613023          	sd	t1,256(sp)
    802000dc:	14202373          	csrr	t1,scause
    802000e0:	10613423          	sd	t1,264(sp)
    802000e4:	14302373          	csrr	t1,stval
    802000e8:	10613823          	sd	t1,272(sp)
    802000ec:	00010413          	mv	s0,sp
    802000f0:	140022f3          	csrr	t0,sscratch
    802000f4:	00028113          	mv	sp,t0
    802000f8:	ff010113          	addi	sp,sp,-16
    802000fc:	00040513          	mv	a0,s0
    80200100:	305000ef          	jal	80200c04 <trap_entry_c>
    80200104:	00040293          	mv	t0,s0
    80200108:	1002b303          	ld	t1,256(t0)
    8020010c:	10031073          	csrw	sstatus,t1
    80200110:	14151073          	csrw	sepc,a0
    80200114:	0002b083          	ld	ra,0(t0)
    80200118:	0102b183          	ld	gp,16(t0)
    8020011c:	0182b203          	ld	tp,24(t0)
    80200120:	0282b303          	ld	t1,40(t0)
    80200124:	0302b383          	ld	t2,48(t0)
    80200128:	0382b403          	ld	s0,56(t0)
    8020012c:	0402b483          	ld	s1,64(t0)
    80200130:	0482b503          	ld	a0,72(t0)
    80200134:	0502b583          	ld	a1,80(t0)
    80200138:	0582b603          	ld	a2,88(t0)
    8020013c:	0602b683          	ld	a3,96(t0)
    80200140:	0682b703          	ld	a4,104(t0)
    80200144:	0702b783          	ld	a5,112(t0)
    80200148:	0782b803          	ld	a6,120(t0)
    8020014c:	0802b883          	ld	a7,128(t0)
    80200150:	0882b903          	ld	s2,136(t0)
    80200154:	0902b983          	ld	s3,144(t0)
    80200158:	0982ba03          	ld	s4,152(t0)
    8020015c:	0a02ba83          	ld	s5,160(t0)
    80200160:	0a82bb03          	ld	s6,168(t0)
    80200164:	0b02bb83          	ld	s7,176(t0)
    80200168:	0b82bc03          	ld	s8,184(t0)
    8020016c:	0c02bc83          	ld	s9,192(t0)
    80200170:	0c82bd03          	ld	s10,200(t0)
    80200174:	0d02bd83          	ld	s11,208(t0)
    80200178:	0d82be03          	ld	t3,216(t0)
    8020017c:	0e02be83          	ld	t4,224(t0)
    80200180:	0e82bf03          	ld	t5,232(t0)
    80200184:	0f02bf83          	ld	t6,240(t0)
    80200188:	0082b103          	ld	sp,8(t0)
    8020018c:	0202b283          	ld	t0,32(t0)
    80200190:	10200073          	sret

0000000080200194 <arch_enable_timer_interrupts>:
    80200194:	fc010113          	addi	sp,sp,-64
    80200198:	02113c23          	sd	ra,56(sp)
    8020019c:	02813823          	sd	s0,48(sp)
    802001a0:	04010413          	addi	s0,sp,64
    802001a4:	100027f3          	csrr	a5,sstatus
    802001a8:	fef43423          	sd	a5,-24(s0)
    802001ac:	fe843783          	ld	a5,-24(s0)
    802001b0:	fef43023          	sd	a5,-32(s0)
    802001b4:	fe043783          	ld	a5,-32(s0)
    802001b8:	0027e793          	ori	a5,a5,2
    802001bc:	fef43023          	sd	a5,-32(s0)
    802001c0:	fe043783          	ld	a5,-32(s0)
    802001c4:	fcf43c23          	sd	a5,-40(s0)
    802001c8:	fd843783          	ld	a5,-40(s0)
    802001cc:	10079073          	csrw	sstatus,a5
    802001d0:	104027f3          	csrr	a5,sie
    802001d4:	fcf43823          	sd	a5,-48(s0)
    802001d8:	fd043783          	ld	a5,-48(s0)
    802001dc:	fcf43423          	sd	a5,-56(s0)
    802001e0:	fc843783          	ld	a5,-56(s0)
    802001e4:	0207e793          	ori	a5,a5,32
    802001e8:	fcf43423          	sd	a5,-56(s0)
    802001ec:	fc843783          	ld	a5,-56(s0)
    802001f0:	fcf43023          	sd	a5,-64(s0)
    802001f4:	fc043783          	ld	a5,-64(s0)
    802001f8:	10479073          	csrw	sie,a5
    802001fc:	00000013          	nop
    80200200:	03813083          	ld	ra,56(sp)
    80200204:	03013403          	ld	s0,48(sp)
    80200208:	04010113          	addi	sp,sp,64
    8020020c:	00008067          	ret

0000000080200210 <arch_first_switch>:
    80200210:	00050293          	mv	t0,a0
    80200214:	1002b303          	ld	t1,256(t0)
    80200218:	10031073          	csrw	sstatus,t1
    8020021c:	0f82b303          	ld	t1,248(t0)
    80200220:	14131073          	csrw	sepc,t1
    80200224:	0002b083          	ld	ra,0(t0)
    80200228:	0082b103          	ld	sp,8(t0)
    8020022c:	0102b183          	ld	gp,16(t0)
    80200230:	0182b203          	ld	tp,24(t0)
    80200234:	0282b303          	ld	t1,40(t0)
    80200238:	0302b383          	ld	t2,48(t0)
    8020023c:	0382b403          	ld	s0,56(t0)
    80200240:	0402b483          	ld	s1,64(t0)
    80200244:	0482b503          	ld	a0,72(t0)
    80200248:	0502b583          	ld	a1,80(t0)
    8020024c:	0582b603          	ld	a2,88(t0)
    80200250:	0602b683          	ld	a3,96(t0)
    80200254:	0682b703          	ld	a4,104(t0)
    80200258:	0702b783          	ld	a5,112(t0)
    8020025c:	0782b803          	ld	a6,120(t0)
    80200260:	0802b883          	ld	a7,128(t0)
    80200264:	0882b903          	ld	s2,136(t0)
    80200268:	0902b983          	ld	s3,144(t0)
    8020026c:	0982ba03          	ld	s4,152(t0)
    80200270:	0a02ba83          	ld	s5,160(t0)
    80200274:	0a82bb03          	ld	s6,168(t0)
    80200278:	0b02bb83          	ld	s7,176(t0)
    8020027c:	0b82bc03          	ld	s8,184(t0)
    80200280:	0c02bc83          	ld	s9,192(t0)
    80200284:	0c82bd03          	ld	s10,200(t0)
    80200288:	0d02bd83          	ld	s11,208(t0)
    8020028c:	0d82be03          	ld	t3,216(t0)
    80200290:	0e02be83          	ld	t4,224(t0)
    80200294:	0e82bf03          	ld	t5,232(t0)
    80200298:	0f02bf83          	ld	t6,240(t0)
    8020029c:	0202b283          	ld	t0,32(t0)
    802002a0:	10200073          	sret

00000000802002a4 <sbi_call>:
    802002a4:	fa010113          	addi	sp,sp,-96
    802002a8:	04113c23          	sd	ra,88(sp)
    802002ac:	04813823          	sd	s0,80(sp)
    802002b0:	06010413          	addi	s0,sp,96
    802002b4:	fca43423          	sd	a0,-56(s0)
    802002b8:	fcb43023          	sd	a1,-64(s0)
    802002bc:	fac43c23          	sd	a2,-72(s0)
    802002c0:	fad43823          	sd	a3,-80(s0)
    802002c4:	fae43423          	sd	a4,-88(s0)
    802002c8:	faf43023          	sd	a5,-96(s0)
    802002cc:	fb843503          	ld	a0,-72(s0)
    802002d0:	fb043583          	ld	a1,-80(s0)
    802002d4:	fa843603          	ld	a2,-88(s0)
    802002d8:	fa043683          	ld	a3,-96(s0)
    802002dc:	fc043803          	ld	a6,-64(s0)
    802002e0:	fc843883          	ld	a7,-56(s0)
    802002e4:	00000073          	ecall
    802002e8:	00050793          	mv	a5,a0
    802002ec:	fcf43823          	sd	a5,-48(s0)
    802002f0:	00058793          	mv	a5,a1
    802002f4:	fcf43c23          	sd	a5,-40(s0)
    802002f8:	fd043783          	ld	a5,-48(s0)
    802002fc:	fef43023          	sd	a5,-32(s0)
    80200300:	fd843783          	ld	a5,-40(s0)
    80200304:	fef43423          	sd	a5,-24(s0)
    80200308:	fe043703          	ld	a4,-32(s0)
    8020030c:	fe843783          	ld	a5,-24(s0)
    80200310:	00070313          	mv	t1,a4
    80200314:	00078393          	mv	t2,a5
    80200318:	00030713          	mv	a4,t1
    8020031c:	00038793          	mv	a5,t2
    80200320:	00070513          	mv	a0,a4
    80200324:	00078593          	mv	a1,a5
    80200328:	05813083          	ld	ra,88(sp)
    8020032c:	05013403          	ld	s0,80(sp)
    80200330:	06010113          	addi	sp,sp,96
    80200334:	00008067          	ret

0000000080200338 <sbi_set_timer>:
    80200338:	fe010113          	addi	sp,sp,-32
    8020033c:	00113c23          	sd	ra,24(sp)
    80200340:	00813823          	sd	s0,16(sp)
    80200344:	02010413          	addi	s0,sp,32
    80200348:	fea43423          	sd	a0,-24(s0)
    8020034c:	fe843603          	ld	a2,-24(s0)
    80200350:	00000793          	li	a5,0
    80200354:	00000713          	li	a4,0
    80200358:	00000693          	li	a3,0
    8020035c:	00000593          	li	a1,0
    80200360:	54495537          	lui	a0,0x54495
    80200364:	d4550513          	addi	a0,a0,-699 # 54494d45 <STACK_SIZE+0x54493d45>
    80200368:	f3dff0ef          	jal	802002a4 <sbi_call>
    8020036c:	00000013          	nop
    80200370:	01813083          	ld	ra,24(sp)
    80200374:	01013403          	ld	s0,16(sp)
    80200378:	02010113          	addi	sp,sp,32
    8020037c:	00008067          	ret

0000000080200380 <platform_put_hex64>:
    80200380:	fc010113          	addi	sp,sp,-64
    80200384:	02113c23          	sd	ra,56(sp)
    80200388:	02813823          	sd	s0,48(sp)
    8020038c:	04010413          	addi	s0,sp,64
    80200390:	fca43423          	sd	a0,-56(s0)
    80200394:	fe042623          	sw	zero,-20(s0)
    80200398:	fec42783          	lw	a5,-20(s0)
    8020039c:	0017871b          	addiw	a4,a5,1
    802003a0:	fee42623          	sw	a4,-20(s0)
    802003a4:	ff078793          	addi	a5,a5,-16
    802003a8:	008787b3          	add	a5,a5,s0
    802003ac:	03000713          	li	a4,48
    802003b0:	fee78023          	sb	a4,-32(a5)
    802003b4:	fec42783          	lw	a5,-20(s0)
    802003b8:	0017871b          	addiw	a4,a5,1
    802003bc:	fee42623          	sw	a4,-20(s0)
    802003c0:	ff078793          	addi	a5,a5,-16
    802003c4:	008787b3          	add	a5,a5,s0
    802003c8:	07800713          	li	a4,120
    802003cc:	fee78023          	sb	a4,-32(a5)
    802003d0:	03c00793          	li	a5,60
    802003d4:	fef42423          	sw	a5,-24(s0)
    802003d8:	0740006f          	j	8020044c <platform_put_hex64+0xcc>
    802003dc:	fe842783          	lw	a5,-24(s0)
    802003e0:	00078713          	mv	a4,a5
    802003e4:	fc843783          	ld	a5,-56(s0)
    802003e8:	00e7d7b3          	srl	a5,a5,a4
    802003ec:	0ff7f793          	zext.b	a5,a5
    802003f0:	00f7f793          	andi	a5,a5,15
    802003f4:	fef40323          	sb	a5,-26(s0)
    802003f8:	fe644783          	lbu	a5,-26(s0)
    802003fc:	0ff7f713          	zext.b	a4,a5
    80200400:	00900793          	li	a5,9
    80200404:	00e7ea63          	bltu	a5,a4,80200418 <platform_put_hex64+0x98>
    80200408:	fe644783          	lbu	a5,-26(s0)
    8020040c:	0307879b          	addiw	a5,a5,48
    80200410:	fef403a3          	sb	a5,-25(s0)
    80200414:	0100006f          	j	80200424 <platform_put_hex64+0xa4>
    80200418:	fe644783          	lbu	a5,-26(s0)
    8020041c:	0577879b          	addiw	a5,a5,87
    80200420:	fef403a3          	sb	a5,-25(s0)
    80200424:	fec42783          	lw	a5,-20(s0)
    80200428:	0017871b          	addiw	a4,a5,1
    8020042c:	fee42623          	sw	a4,-20(s0)
    80200430:	ff078793          	addi	a5,a5,-16
    80200434:	008787b3          	add	a5,a5,s0
    80200438:	fe744703          	lbu	a4,-25(s0)
    8020043c:	fee78023          	sb	a4,-32(a5)
    80200440:	fe842783          	lw	a5,-24(s0)
    80200444:	ffc7879b          	addiw	a5,a5,-4
    80200448:	fef42423          	sw	a5,-24(s0)
    8020044c:	fe842783          	lw	a5,-24(s0)
    80200450:	0007879b          	sext.w	a5,a5
    80200454:	f807d4e3          	bgez	a5,802003dc <platform_put_hex64+0x5c>
    80200458:	fec42783          	lw	a5,-20(s0)
    8020045c:	ff078793          	addi	a5,a5,-16
    80200460:	008787b3          	add	a5,a5,s0
    80200464:	fe078023          	sb	zero,-32(a5)
    80200468:	fec42703          	lw	a4,-20(s0)
    8020046c:	fd040793          	addi	a5,s0,-48
    80200470:	00070593          	mv	a1,a4
    80200474:	00078513          	mv	a0,a5
    80200478:	018000ef          	jal	80200490 <platform_write>
    8020047c:	00000013          	nop
    80200480:	03813083          	ld	ra,56(sp)
    80200484:	03013403          	ld	s0,48(sp)
    80200488:	04010113          	addi	sp,sp,64
    8020048c:	00008067          	ret

0000000080200490 <platform_write>:
    80200490:	fe010113          	addi	sp,sp,-32
    80200494:	00113c23          	sd	ra,24(sp)
    80200498:	00813823          	sd	s0,16(sp)
    8020049c:	02010413          	addi	s0,sp,32
    802004a0:	fea43423          	sd	a0,-24(s0)
    802004a4:	feb43023          	sd	a1,-32(s0)
    802004a8:	fe843783          	ld	a5,-24(s0)
    802004ac:	00078e63          	beqz	a5,802004c8 <platform_write+0x38>
    802004b0:	fe043783          	ld	a5,-32(s0)
    802004b4:	00078a63          	beqz	a5,802004c8 <platform_write+0x38>
    802004b8:	fe043583          	ld	a1,-32(s0)
    802004bc:	fe843503          	ld	a0,-24(s0)
    802004c0:	278000ef          	jal	80200738 <uart16550_write>
    802004c4:	0080006f          	j	802004cc <platform_write+0x3c>
    802004c8:	00000013          	nop
    802004cc:	01813083          	ld	ra,24(sp)
    802004d0:	01013403          	ld	s0,16(sp)
    802004d4:	02010113          	addi	sp,sp,32
    802004d8:	00008067          	ret

00000000802004dc <platform_putc>:
    802004dc:	fe010113          	addi	sp,sp,-32
    802004e0:	00113c23          	sd	ra,24(sp)
    802004e4:	00813823          	sd	s0,16(sp)
    802004e8:	02010413          	addi	s0,sp,32
    802004ec:	00050793          	mv	a5,a0
    802004f0:	fef407a3          	sb	a5,-17(s0)
    802004f4:	fef44783          	lbu	a5,-17(s0)
    802004f8:	00078513          	mv	a0,a5
    802004fc:	1e8000ef          	jal	802006e4 <uart16550_putc>
    80200500:	00000013          	nop
    80200504:	01813083          	ld	ra,24(sp)
    80200508:	01013403          	ld	s0,16(sp)
    8020050c:	02010113          	addi	sp,sp,32
    80200510:	00008067          	ret

0000000080200514 <platform_puts>:
    80200514:	fe010113          	addi	sp,sp,-32
    80200518:	00113c23          	sd	ra,24(sp)
    8020051c:	00813823          	sd	s0,16(sp)
    80200520:	02010413          	addi	s0,sp,32
    80200524:	fea43423          	sd	a0,-24(s0)
    80200528:	fe843783          	ld	a5,-24(s0)
    8020052c:	00078863          	beqz	a5,8020053c <platform_puts+0x28>
    80200530:	fe843503          	ld	a0,-24(s0)
    80200534:	27c000ef          	jal	802007b0 <uart16550_puts>
    80200538:	0080006f          	j	80200540 <platform_puts+0x2c>
    8020053c:	00000013          	nop
    80200540:	01813083          	ld	ra,24(sp)
    80200544:	01013403          	ld	s0,16(sp)
    80200548:	02010113          	addi	sp,sp,32
    8020054c:	00008067          	ret

0000000080200550 <platform_idle>:
    80200550:	ff010113          	addi	sp,sp,-16
    80200554:	00113423          	sd	ra,8(sp)
    80200558:	00813023          	sd	s0,0(sp)
    8020055c:	01010413          	addi	s0,sp,16
    80200560:	00000013          	nop
    80200564:	00000013          	nop
    80200568:	00813083          	ld	ra,8(sp)
    8020056c:	00013403          	ld	s0,0(sp)
    80200570:	01010113          	addi	sp,sp,16
    80200574:	00008067          	ret

0000000080200578 <platform_time_now>:
    80200578:	fe010113          	addi	sp,sp,-32
    8020057c:	00113c23          	sd	ra,24(sp)
    80200580:	00813823          	sd	s0,16(sp)
    80200584:	02010413          	addi	s0,sp,32
    80200588:	c01027f3          	rdtime	a5
    8020058c:	fef43423          	sd	a5,-24(s0)
    80200590:	fe843783          	ld	a5,-24(s0)
    80200594:	00078513          	mv	a0,a5
    80200598:	01813083          	ld	ra,24(sp)
    8020059c:	01013403          	ld	s0,16(sp)
    802005a0:	02010113          	addi	sp,sp,32
    802005a4:	00008067          	ret

00000000802005a8 <platform_timer_start_at>:
    802005a8:	fe010113          	addi	sp,sp,-32
    802005ac:	00113c23          	sd	ra,24(sp)
    802005b0:	00813823          	sd	s0,16(sp)
    802005b4:	02010413          	addi	s0,sp,32
    802005b8:	fea43423          	sd	a0,-24(s0)
    802005bc:	fe843503          	ld	a0,-24(s0)
    802005c0:	d79ff0ef          	jal	80200338 <sbi_set_timer>
    802005c4:	00000013          	nop
    802005c8:	01813083          	ld	ra,24(sp)
    802005cc:	01013403          	ld	s0,16(sp)
    802005d0:	02010113          	addi	sp,sp,32
    802005d4:	00008067          	ret

00000000802005d8 <platform_timer_start_after>:
    802005d8:	fd010113          	addi	sp,sp,-48
    802005dc:	02113423          	sd	ra,40(sp)
    802005e0:	02813023          	sd	s0,32(sp)
    802005e4:	03010413          	addi	s0,sp,48
    802005e8:	fca43c23          	sd	a0,-40(s0)
    802005ec:	f8dff0ef          	jal	80200578 <platform_time_now>
    802005f0:	fea43423          	sd	a0,-24(s0)
    802005f4:	fe843703          	ld	a4,-24(s0)
    802005f8:	fd843783          	ld	a5,-40(s0)
    802005fc:	00f707b3          	add	a5,a4,a5
    80200600:	00078513          	mv	a0,a5
    80200604:	fa5ff0ef          	jal	802005a8 <platform_timer_start_at>
    80200608:	00000013          	nop
    8020060c:	02813083          	ld	ra,40(sp)
    80200610:	02013403          	ld	s0,32(sp)
    80200614:	03010113          	addi	sp,sp,48
    80200618:	00008067          	ret

000000008020061c <platform_early_init>:
    8020061c:	ff010113          	addi	sp,sp,-16
    80200620:	00113423          	sd	ra,8(sp)
    80200624:	00813023          	sd	s0,0(sp)
    80200628:	01010413          	addi	s0,sp,16
    8020062c:	094000ef          	jal	802006c0 <uart16550_init>
    80200630:	00000013          	nop
    80200634:	00813083          	ld	ra,8(sp)
    80200638:	00013403          	ld	s0,0(sp)
    8020063c:	01010113          	addi	sp,sp,16
    80200640:	00008067          	ret

0000000080200644 <uart_lsr_read>:
    80200644:	fe010113          	addi	sp,sp,-32
    80200648:	00113c23          	sd	ra,24(sp)
    8020064c:	00813823          	sd	s0,16(sp)
    80200650:	02010413          	addi	s0,sp,32
    80200654:	100007b7          	lui	a5,0x10000
    80200658:	00578793          	addi	a5,a5,5 # 10000005 <STACK_SIZE+0xffff005>
    8020065c:	fef43423          	sd	a5,-24(s0)
    80200660:	fe843783          	ld	a5,-24(s0)
    80200664:	0007c783          	lbu	a5,0(a5)
    80200668:	0ff7f793          	zext.b	a5,a5
    8020066c:	00078513          	mv	a0,a5
    80200670:	01813083          	ld	ra,24(sp)
    80200674:	01013403          	ld	s0,16(sp)
    80200678:	02010113          	addi	sp,sp,32
    8020067c:	00008067          	ret

0000000080200680 <uart_thr_write>:
    80200680:	fd010113          	addi	sp,sp,-48
    80200684:	02113423          	sd	ra,40(sp)
    80200688:	02813023          	sd	s0,32(sp)
    8020068c:	03010413          	addi	s0,sp,48
    80200690:	00050793          	mv	a5,a0
    80200694:	fcf40fa3          	sb	a5,-33(s0)
    80200698:	100007b7          	lui	a5,0x10000
    8020069c:	fef43423          	sd	a5,-24(s0)
    802006a0:	fe843783          	ld	a5,-24(s0)
    802006a4:	fdf44703          	lbu	a4,-33(s0)
    802006a8:	00e78023          	sb	a4,0(a5) # 10000000 <STACK_SIZE+0xffff000>
    802006ac:	00000013          	nop
    802006b0:	02813083          	ld	ra,40(sp)
    802006b4:	02013403          	ld	s0,32(sp)
    802006b8:	03010113          	addi	sp,sp,48
    802006bc:	00008067          	ret

00000000802006c0 <uart16550_init>:
    802006c0:	ff010113          	addi	sp,sp,-16
    802006c4:	00113423          	sd	ra,8(sp)
    802006c8:	00813023          	sd	s0,0(sp)
    802006cc:	01010413          	addi	s0,sp,16
    802006d0:	00000013          	nop
    802006d4:	00813083          	ld	ra,8(sp)
    802006d8:	00013403          	ld	s0,0(sp)
    802006dc:	01010113          	addi	sp,sp,16
    802006e0:	00008067          	ret

00000000802006e4 <uart16550_putc>:
    802006e4:	fe010113          	addi	sp,sp,-32
    802006e8:	00113c23          	sd	ra,24(sp)
    802006ec:	00813823          	sd	s0,16(sp)
    802006f0:	02010413          	addi	s0,sp,32
    802006f4:	00050793          	mv	a5,a0
    802006f8:	fef407a3          	sb	a5,-17(s0)
    802006fc:	00000013          	nop
    80200700:	f45ff0ef          	jal	80200644 <uart_lsr_read>
    80200704:	00050793          	mv	a5,a0
    80200708:	0007879b          	sext.w	a5,a5
    8020070c:	0207f793          	andi	a5,a5,32
    80200710:	0007879b          	sext.w	a5,a5
    80200714:	fe0786e3          	beqz	a5,80200700 <uart16550_putc+0x1c>
    80200718:	fef44783          	lbu	a5,-17(s0)
    8020071c:	00078513          	mv	a0,a5
    80200720:	f61ff0ef          	jal	80200680 <uart_thr_write>
    80200724:	00000013          	nop
    80200728:	01813083          	ld	ra,24(sp)
    8020072c:	01013403          	ld	s0,16(sp)
    80200730:	02010113          	addi	sp,sp,32
    80200734:	00008067          	ret

0000000080200738 <uart16550_write>:
    80200738:	fd010113          	addi	sp,sp,-48
    8020073c:	02113423          	sd	ra,40(sp)
    80200740:	02813023          	sd	s0,32(sp)
    80200744:	03010413          	addi	s0,sp,48
    80200748:	fca43c23          	sd	a0,-40(s0)
    8020074c:	fcb43823          	sd	a1,-48(s0)
    80200750:	fd843783          	ld	a5,-40(s0)
    80200754:	04078463          	beqz	a5,8020079c <uart16550_write+0x64>
    80200758:	fd043783          	ld	a5,-48(s0)
    8020075c:	04078063          	beqz	a5,8020079c <uart16550_write+0x64>
    80200760:	fe043423          	sd	zero,-24(s0)
    80200764:	0280006f          	j	8020078c <uart16550_write+0x54>
    80200768:	fd843703          	ld	a4,-40(s0)
    8020076c:	fe843783          	ld	a5,-24(s0)
    80200770:	00f707b3          	add	a5,a4,a5
    80200774:	0007c783          	lbu	a5,0(a5)
    80200778:	00078513          	mv	a0,a5
    8020077c:	f69ff0ef          	jal	802006e4 <uart16550_putc>
    80200780:	fe843783          	ld	a5,-24(s0)
    80200784:	00178793          	addi	a5,a5,1
    80200788:	fef43423          	sd	a5,-24(s0)
    8020078c:	fe843703          	ld	a4,-24(s0)
    80200790:	fd043783          	ld	a5,-48(s0)
    80200794:	fcf76ae3          	bltu	a4,a5,80200768 <uart16550_write+0x30>
    80200798:	0080006f          	j	802007a0 <uart16550_write+0x68>
    8020079c:	00000013          	nop
    802007a0:	02813083          	ld	ra,40(sp)
    802007a4:	02013403          	ld	s0,32(sp)
    802007a8:	03010113          	addi	sp,sp,48
    802007ac:	00008067          	ret

00000000802007b0 <uart16550_puts>:
    802007b0:	fe010113          	addi	sp,sp,-32
    802007b4:	00113c23          	sd	ra,24(sp)
    802007b8:	00813823          	sd	s0,16(sp)
    802007bc:	02010413          	addi	s0,sp,32
    802007c0:	fea43423          	sd	a0,-24(s0)
    802007c4:	fe843783          	ld	a5,-24(s0)
    802007c8:	04078663          	beqz	a5,80200814 <uart16550_puts+0x64>
    802007cc:	0380006f          	j	80200804 <uart16550_puts+0x54>
    802007d0:	fe843783          	ld	a5,-24(s0)
    802007d4:	0007c783          	lbu	a5,0(a5)
    802007d8:	00078713          	mv	a4,a5
    802007dc:	00a00793          	li	a5,10
    802007e0:	00f71663          	bne	a4,a5,802007ec <uart16550_puts+0x3c>
    802007e4:	00d00513          	li	a0,13
    802007e8:	efdff0ef          	jal	802006e4 <uart16550_putc>
    802007ec:	fe843783          	ld	a5,-24(s0)
    802007f0:	00178713          	addi	a4,a5,1
    802007f4:	fee43423          	sd	a4,-24(s0)
    802007f8:	0007c783          	lbu	a5,0(a5)
    802007fc:	00078513          	mv	a0,a5
    80200800:	ee5ff0ef          	jal	802006e4 <uart16550_putc>
    80200804:	fe843783          	ld	a5,-24(s0)
    80200808:	0007c783          	lbu	a5,0(a5)
    8020080c:	fc0792e3          	bnez	a5,802007d0 <uart16550_puts+0x20>
    80200810:	0080006f          	j	80200818 <uart16550_puts+0x68>
    80200814:	00000013          	nop
    80200818:	01813083          	ld	ra,24(sp)
    8020081c:	01013403          	ld	s0,16(sp)
    80200820:	02010113          	addi	sp,sp,32
    80200824:	00008067          	ret

0000000080200828 <uart16550_put_hex64>:
    80200828:	fd010113          	addi	sp,sp,-48
    8020082c:	02113423          	sd	ra,40(sp)
    80200830:	02813023          	sd	s0,32(sp)
    80200834:	03010413          	addi	s0,sp,48
    80200838:	fca43c23          	sd	a0,-40(s0)
    8020083c:	03c00793          	li	a5,60
    80200840:	fef42623          	sw	a5,-20(s0)
    80200844:	0640006f          	j	802008a8 <uart16550_put_hex64+0x80>
    80200848:	fec42783          	lw	a5,-20(s0)
    8020084c:	00078713          	mv	a4,a5
    80200850:	fd843783          	ld	a5,-40(s0)
    80200854:	00e7d7b3          	srl	a5,a5,a4
    80200858:	0ff7f793          	zext.b	a5,a5
    8020085c:	00f7f793          	andi	a5,a5,15
    80200860:	fef40523          	sb	a5,-22(s0)
    80200864:	fea44783          	lbu	a5,-22(s0)
    80200868:	0ff7f713          	zext.b	a4,a5
    8020086c:	00900793          	li	a5,9
    80200870:	00e7ea63          	bltu	a5,a4,80200884 <uart16550_put_hex64+0x5c>
    80200874:	fea44783          	lbu	a5,-22(s0)
    80200878:	0307879b          	addiw	a5,a5,48
    8020087c:	fef405a3          	sb	a5,-21(s0)
    80200880:	0100006f          	j	80200890 <uart16550_put_hex64+0x68>
    80200884:	fea44783          	lbu	a5,-22(s0)
    80200888:	0577879b          	addiw	a5,a5,87
    8020088c:	fef405a3          	sb	a5,-21(s0)
    80200890:	feb44783          	lbu	a5,-21(s0)
    80200894:	00078513          	mv	a0,a5
    80200898:	e4dff0ef          	jal	802006e4 <uart16550_putc>
    8020089c:	fec42783          	lw	a5,-20(s0)
    802008a0:	ffc7879b          	addiw	a5,a5,-4
    802008a4:	fef42623          	sw	a5,-20(s0)
    802008a8:	fec42783          	lw	a5,-20(s0)
    802008ac:	0007879b          	sext.w	a5,a5
    802008b0:	f807dce3          	bgez	a5,80200848 <uart16550_put_hex64+0x20>
    802008b4:	00000013          	nop
    802008b8:	00000013          	nop
    802008bc:	02813083          	ld	ra,40(sp)
    802008c0:	02013403          	ld	s0,32(sp)
    802008c4:	03010113          	addi	sp,sp,48
    802008c8:	00008067          	ret

00000000802008cc <main>:
    802008cc:	fe010113          	addi	sp,sp,-32
    802008d0:	00113c23          	sd	ra,24(sp)
    802008d4:	00813823          	sd	s0,16(sp)
    802008d8:	02010413          	addi	s0,sp,32
    802008dc:	fea43423          	sd	a0,-24(s0)
    802008e0:	feb43023          	sd	a1,-32(s0)
    802008e4:	00003517          	auipc	a0,0x3
    802008e8:	0e450513          	addi	a0,a0,228 # 802039c8 <log_init_baremetal+0x78>
    802008ec:	c29ff0ef          	jal	80200514 <platform_puts>
    802008f0:	d2dff0ef          	jal	8020061c <platform_early_init>
    802008f4:	05c030ef          	jal	80203950 <log_init_baremetal>
    802008f8:	0a0000ef          	jal	80200998 <trap_init>
    802008fc:	899ff0ef          	jal	80200194 <arch_enable_timer_interrupts>
    80200900:	2e9000ef          	jal	802013e8 <threads_init>
    80200904:	000f47b7          	lui	a5,0xf4
    80200908:	24078513          	addi	a0,a5,576 # f4240 <STACK_SIZE+0xf3240>
    8020090c:	ccdff0ef          	jal	802005d8 <platform_timer_start_after>
    80200910:	00000593          	li	a1,0
    80200914:	00002517          	auipc	a0,0x2
    80200918:	90050513          	addi	a0,a0,-1792 # 80202214 <user_main>
    8020091c:	6dd000ef          	jal	802017f8 <threads_exec>
    80200920:	10500073          	wfi
    80200924:	ffdff06f          	j	80200920 <main+0x54>

0000000080200928 <scause_is_interrupt>:
    80200928:	fe010113          	addi	sp,sp,-32
    8020092c:	00113c23          	sd	ra,24(sp)
    80200930:	00813823          	sd	s0,16(sp)
    80200934:	02010413          	addi	s0,sp,32
    80200938:	fea43423          	sd	a0,-24(s0)
    8020093c:	fe843783          	ld	a5,-24(s0)
    80200940:	03f7d793          	srli	a5,a5,0x3f
    80200944:	0ff7f793          	zext.b	a5,a5
    80200948:	0007879b          	sext.w	a5,a5
    8020094c:	00078513          	mv	a0,a5
    80200950:	01813083          	ld	ra,24(sp)
    80200954:	01013403          	ld	s0,16(sp)
    80200958:	02010113          	addi	sp,sp,32
    8020095c:	00008067          	ret

0000000080200960 <scause_code>:
    80200960:	fe010113          	addi	sp,sp,-32
    80200964:	00113c23          	sd	ra,24(sp)
    80200968:	00813823          	sd	s0,16(sp)
    8020096c:	02010413          	addi	s0,sp,32
    80200970:	fea43423          	sd	a0,-24(s0)
    80200974:	fe843703          	ld	a4,-24(s0)
    80200978:	fff00793          	li	a5,-1
    8020097c:	0017d793          	srli	a5,a5,0x1
    80200980:	00f777b3          	and	a5,a4,a5
    80200984:	00078513          	mv	a0,a5
    80200988:	01813083          	ld	ra,24(sp)
    8020098c:	01013403          	ld	s0,16(sp)
    80200990:	02010113          	addi	sp,sp,32
    80200994:	00008067          	ret

0000000080200998 <trap_init>:
    80200998:	fc010113          	addi	sp,sp,-64
    8020099c:	02113c23          	sd	ra,56(sp)
    802009a0:	02813823          	sd	s0,48(sp)
    802009a4:	04010413          	addi	s0,sp,64
    802009a8:	fffff797          	auipc	a5,0xfffff
    802009ac:	6a078793          	addi	a5,a5,1696 # 80200048 <trap_entry>
    802009b0:	fef43423          	sd	a5,-24(s0)
    802009b4:	fe843783          	ld	a5,-24(s0)
    802009b8:	ffc7f793          	andi	a5,a5,-4
    802009bc:	fef43423          	sd	a5,-24(s0)
    802009c0:	fe843783          	ld	a5,-24(s0)
    802009c4:	fef43023          	sd	a5,-32(s0)
    802009c8:	fe043783          	ld	a5,-32(s0)
    802009cc:	10579073          	csrw	stvec,a5
    802009d0:	00004797          	auipc	a5,0x4
    802009d4:	41078793          	addi	a5,a5,1040 # 80204de0 <g_threads>
    802009d8:	fcf43c23          	sd	a5,-40(s0)
    802009dc:	fd843783          	ld	a5,-40(s0)
    802009e0:	ff07f793          	andi	a5,a5,-16
    802009e4:	fcf43c23          	sd	a5,-40(s0)
    802009e8:	fd843783          	ld	a5,-40(s0)
    802009ec:	fcf43823          	sd	a5,-48(s0)
    802009f0:	fd043783          	ld	a5,-48(s0)
    802009f4:	14079073          	csrw	sscratch,a5
    802009f8:	00200793          	li	a5,2
    802009fc:	fcf43423          	sd	a5,-56(s0)
    80200a00:	fc843783          	ld	a5,-56(s0)
    80200a04:	1007b073          	csrc	sstatus,a5
    80200a08:	22200793          	li	a5,546
    80200a0c:	fcf43023          	sd	a5,-64(s0)
    80200a10:	fc043783          	ld	a5,-64(s0)
    80200a14:	1047b073          	csrc	sie,a5
    80200a18:	00000013          	nop
    80200a1c:	03813083          	ld	ra,56(sp)
    80200a20:	03013403          	ld	s0,48(sp)
    80200a24:	04010113          	addi	sp,sp,64
    80200a28:	00008067          	ret

0000000080200a2c <timer_handler>:
    80200a2c:	fe010113          	addi	sp,sp,-32
    80200a30:	00113c23          	sd	ra,24(sp)
    80200a34:	00813823          	sd	s0,16(sp)
    80200a38:	02010413          	addi	s0,sp,32
    80200a3c:	fea43423          	sd	a0,-24(s0)
    80200a40:	661000ef          	jal	802018a0 <threads_tick>
    80200a44:	000f47b7          	lui	a5,0xf4
    80200a48:	24078513          	addi	a0,a5,576 # f4240 <STACK_SIZE+0xf3240>
    80200a4c:	b8dff0ef          	jal	802005d8 <platform_timer_start_after>
    80200a50:	fe843503          	ld	a0,-24(s0)
    80200a54:	70d000ef          	jal	80201960 <schedule>
    80200a58:	00000013          	nop
    80200a5c:	01813083          	ld	ra,24(sp)
    80200a60:	01013403          	ld	s0,16(sp)
    80200a64:	02010113          	addi	sp,sp,32
    80200a68:	00008067          	ret

0000000080200a6c <syscall_handler>:
    80200a6c:	fd010113          	addi	sp,sp,-48
    80200a70:	02113423          	sd	ra,40(sp)
    80200a74:	02813023          	sd	s0,32(sp)
    80200a78:	03010413          	addi	s0,sp,48
    80200a7c:	fca43c23          	sd	a0,-40(s0)
    80200a80:	fd843783          	ld	a5,-40(s0)
    80200a84:	0487b783          	ld	a5,72(a5)
    80200a88:	fef43423          	sd	a5,-24(s0)
    80200a8c:	fd843783          	ld	a5,-40(s0)
    80200a90:	0f87b783          	ld	a5,248(a5)
    80200a94:	fef43023          	sd	a5,-32(s0)
    80200a98:	fe843703          	ld	a4,-24(s0)
    80200a9c:	00400793          	li	a5,4
    80200aa0:	0cf70863          	beq	a4,a5,80200b70 <syscall_handler+0x104>
    80200aa4:	fe843703          	ld	a4,-24(s0)
    80200aa8:	00400793          	li	a5,4
    80200aac:	10e7e463          	bltu	a5,a4,80200bb4 <syscall_handler+0x148>
    80200ab0:	fe843703          	ld	a4,-24(s0)
    80200ab4:	00300793          	li	a5,3
    80200ab8:	08f70063          	beq	a4,a5,80200b38 <syscall_handler+0xcc>
    80200abc:	fe843703          	ld	a4,-24(s0)
    80200ac0:	00300793          	li	a5,3
    80200ac4:	0ee7e863          	bltu	a5,a4,80200bb4 <syscall_handler+0x148>
    80200ac8:	fe843703          	ld	a4,-24(s0)
    80200acc:	00100793          	li	a5,1
    80200ad0:	00f70a63          	beq	a4,a5,80200ae4 <syscall_handler+0x78>
    80200ad4:	fe843703          	ld	a4,-24(s0)
    80200ad8:	00200793          	li	a5,2
    80200adc:	02f70863          	beq	a4,a5,80200b0c <syscall_handler+0xa0>
    80200ae0:	0d40006f          	j	80200bb4 <syscall_handler+0x148>
    80200ae4:	fe043783          	ld	a5,-32(s0)
    80200ae8:	00478713          	addi	a4,a5,4
    80200aec:	fd843783          	ld	a5,-40(s0)
    80200af0:	0ee7bc23          	sd	a4,248(a5)
    80200af4:	fd843783          	ld	a5,-40(s0)
    80200af8:	0507b783          	ld	a5,80(a5)
    80200afc:	00078593          	mv	a1,a5
    80200b00:	fd843503          	ld	a0,-40(s0)
    80200b04:	01c010ef          	jal	80201b20 <thread_sys_sleep>
    80200b08:	0e00006f          	j	80200be8 <syscall_handler+0x17c>
    80200b0c:	fe043783          	ld	a5,-32(s0)
    80200b10:	00478713          	addi	a4,a5,4
    80200b14:	fd843783          	ld	a5,-40(s0)
    80200b18:	0ee7bc23          	sd	a4,248(a5)
    80200b1c:	fd843783          	ld	a5,-40(s0)
    80200b20:	0507b783          	ld	a5,80(a5)
    80200b24:	0007879b          	sext.w	a5,a5
    80200b28:	00078593          	mv	a1,a5
    80200b2c:	fd843503          	ld	a0,-40(s0)
    80200b30:	0d8010ef          	jal	80201c08 <thread_sys_exit>
    80200b34:	0b40006f          	j	80200be8 <syscall_handler+0x17c>
    80200b38:	fe043783          	ld	a5,-32(s0)
    80200b3c:	00478713          	addi	a4,a5,4
    80200b40:	fd843783          	ld	a5,-40(s0)
    80200b44:	0ee7bc23          	sd	a4,248(a5)
    80200b48:	fd843783          	ld	a5,-40(s0)
    80200b4c:	0507b783          	ld	a5,80(a5)
    80200b50:	0007871b          	sext.w	a4,a5
    80200b54:	fd843783          	ld	a5,-40(s0)
    80200b58:	0587b783          	ld	a5,88(a5)
    80200b5c:	00078613          	mv	a2,a5
    80200b60:	00070593          	mv	a1,a4
    80200b64:	fd843503          	ld	a0,-40(s0)
    80200b68:	1bc010ef          	jal	80201d24 <thread_sys_join>
    80200b6c:	07c0006f          	j	80200be8 <syscall_handler+0x17c>
    80200b70:	fe043783          	ld	a5,-32(s0)
    80200b74:	00478713          	addi	a4,a5,4
    80200b78:	fd843783          	ld	a5,-40(s0)
    80200b7c:	0ee7bc23          	sd	a4,248(a5)
    80200b80:	fd843783          	ld	a5,-40(s0)
    80200b84:	0507b783          	ld	a5,80(a5)
    80200b88:	00078713          	mv	a4,a5
    80200b8c:	fd843783          	ld	a5,-40(s0)
    80200b90:	0587b783          	ld	a5,88(a5)
    80200b94:	00078613          	mv	a2,a5
    80200b98:	fd843783          	ld	a5,-40(s0)
    80200b9c:	0607b783          	ld	a5,96(a5)
    80200ba0:	00078693          	mv	a3,a5
    80200ba4:	00070593          	mv	a1,a4
    80200ba8:	fd843503          	ld	a0,-40(s0)
    80200bac:	004010ef          	jal	80201bb0 <thread_sys_create>
    80200bb0:	0380006f          	j	80200be8 <syscall_handler+0x17c>
    80200bb4:	fe043783          	ld	a5,-32(s0)
    80200bb8:	00478713          	addi	a4,a5,4
    80200bbc:	fd843783          	ld	a5,-40(s0)
    80200bc0:	0ee7bc23          	sd	a4,248(a5)
    80200bc4:	00003517          	auipc	a0,0x3
    80200bc8:	e1450513          	addi	a0,a0,-492 # 802039d8 <log_init_baremetal+0x88>
    80200bcc:	949ff0ef          	jal	80200514 <platform_puts>
    80200bd0:	fe843503          	ld	a0,-24(s0)
    80200bd4:	facff0ef          	jal	80200380 <platform_put_hex64>
    80200bd8:	00003517          	auipc	a0,0x3
    80200bdc:	e1850513          	addi	a0,a0,-488 # 802039f0 <log_init_baremetal+0xa0>
    80200be0:	935ff0ef          	jal	80200514 <platform_puts>
    80200be4:	00000013          	nop
    80200be8:	fd843783          	ld	a5,-40(s0)
    80200bec:	0f87b783          	ld	a5,248(a5)
    80200bf0:	00078513          	mv	a0,a5
    80200bf4:	02813083          	ld	ra,40(sp)
    80200bf8:	02013403          	ld	s0,32(sp)
    80200bfc:	03010113          	addi	sp,sp,48
    80200c00:	00008067          	ret

0000000080200c04 <trap_entry_c>:
    80200c04:	fb010113          	addi	sp,sp,-80
    80200c08:	04113423          	sd	ra,72(sp)
    80200c0c:	04813023          	sd	s0,64(sp)
    80200c10:	05010413          	addi	s0,sp,80
    80200c14:	faa43c23          	sd	a0,-72(s0)
    80200c18:	fb843783          	ld	a5,-72(s0)
    80200c1c:	1087b783          	ld	a5,264(a5)
    80200c20:	fef43423          	sd	a5,-24(s0)
    80200c24:	fb843783          	ld	a5,-72(s0)
    80200c28:	1107b783          	ld	a5,272(a5)
    80200c2c:	fef43023          	sd	a5,-32(s0)
    80200c30:	fb843783          	ld	a5,-72(s0)
    80200c34:	0f87b783          	ld	a5,248(a5)
    80200c38:	fcf43c23          	sd	a5,-40(s0)
    80200c3c:	fb843783          	ld	a5,-72(s0)
    80200c40:	1007b783          	ld	a5,256(a5)
    80200c44:	fcf43823          	sd	a5,-48(s0)
    80200c48:	fe843503          	ld	a0,-24(s0)
    80200c4c:	cddff0ef          	jal	80200928 <scause_is_interrupt>
    80200c50:	00050793          	mv	a5,a0
    80200c54:	fcf42623          	sw	a5,-52(s0)
    80200c58:	fe843503          	ld	a0,-24(s0)
    80200c5c:	d05ff0ef          	jal	80200960 <scause_code>
    80200c60:	fca43023          	sd	a0,-64(s0)
    80200c64:	fcc42783          	lw	a5,-52(s0)
    80200c68:	0007879b          	sext.w	a5,a5
    80200c6c:	02078263          	beqz	a5,80200c90 <trap_entry_c+0x8c>
    80200c70:	fc043703          	ld	a4,-64(s0)
    80200c74:	00500793          	li	a5,5
    80200c78:	06f71a63          	bne	a4,a5,80200cec <trap_entry_c+0xe8>
    80200c7c:	fb843503          	ld	a0,-72(s0)
    80200c80:	dadff0ef          	jal	80200a2c <timer_handler>
    80200c84:	fb843783          	ld	a5,-72(s0)
    80200c88:	0f87b783          	ld	a5,248(a5)
    80200c8c:	1bc0006f          	j	80200e48 <trap_entry_c+0x244>
    80200c90:	fc043703          	ld	a4,-64(s0)
    80200c94:	00200793          	li	a5,2
    80200c98:	02f70263          	beq	a4,a5,80200cbc <trap_entry_c+0xb8>
    80200c9c:	fc043703          	ld	a4,-64(s0)
    80200ca0:	00800793          	li	a5,8
    80200ca4:	04f71863          	bne	a4,a5,80200cf4 <trap_entry_c+0xf0>
    80200ca8:	fb843503          	ld	a0,-72(s0)
    80200cac:	dc1ff0ef          	jal	80200a6c <syscall_handler>
    80200cb0:	fb843783          	ld	a5,-72(s0)
    80200cb4:	0f87b783          	ld	a5,248(a5)
    80200cb8:	1900006f          	j	80200e48 <trap_entry_c+0x244>
    80200cbc:	00003517          	auipc	a0,0x3
    80200cc0:	d3c50513          	addi	a0,a0,-708 # 802039f8 <log_init_baremetal+0xa8>
    80200cc4:	851ff0ef          	jal	80200514 <platform_puts>
    80200cc8:	fd043783          	ld	a5,-48(s0)
    80200ccc:	1007f793          	andi	a5,a5,256
    80200cd0:	02079663          	bnez	a5,80200cfc <trap_entry_c+0xf8>
    80200cd4:	fff00593          	li	a1,-1
    80200cd8:	fb843503          	ld	a0,-72(s0)
    80200cdc:	72d000ef          	jal	80201c08 <thread_sys_exit>
    80200ce0:	fb843783          	ld	a5,-72(s0)
    80200ce4:	0f87b783          	ld	a5,248(a5)
    80200ce8:	1600006f          	j	80200e48 <trap_entry_c+0x244>
    80200cec:	00000013          	nop
    80200cf0:	0100006f          	j	80200d00 <trap_entry_c+0xfc>
    80200cf4:	00000013          	nop
    80200cf8:	0080006f          	j	80200d00 <trap_entry_c+0xfc>
    80200cfc:	00000013          	nop
    80200d00:	00003517          	auipc	a0,0x3
    80200d04:	d1050513          	addi	a0,a0,-752 # 80203a10 <log_init_baremetal+0xc0>
    80200d08:	80dff0ef          	jal	80200514 <platform_puts>
    80200d0c:	fcc42783          	lw	a5,-52(s0)
    80200d10:	0007879b          	sext.w	a5,a5
    80200d14:	00078863          	beqz	a5,80200d24 <trap_entry_c+0x120>
    80200d18:	00003797          	auipc	a5,0x3
    80200d1c:	d1078793          	addi	a5,a5,-752 # 80203a28 <log_init_baremetal+0xd8>
    80200d20:	00c0006f          	j	80200d2c <trap_entry_c+0x128>
    80200d24:	00003797          	auipc	a5,0x3
    80200d28:	d1478793          	addi	a5,a5,-748 # 80203a38 <log_init_baremetal+0xe8>
    80200d2c:	00078513          	mv	a0,a5
    80200d30:	fe4ff0ef          	jal	80200514 <platform_puts>
    80200d34:	00003517          	auipc	a0,0x3
    80200d38:	d1450513          	addi	a0,a0,-748 # 80203a48 <log_init_baremetal+0xf8>
    80200d3c:	fd8ff0ef          	jal	80200514 <platform_puts>
    80200d40:	fc043503          	ld	a0,-64(s0)
    80200d44:	e3cff0ef          	jal	80200380 <platform_put_hex64>
    80200d48:	fcc42783          	lw	a5,-52(s0)
    80200d4c:	0007879b          	sext.w	a5,a5
    80200d50:	08079a63          	bnez	a5,80200de4 <trap_entry_c+0x1e0>
    80200d54:	fc043703          	ld	a4,-64(s0)
    80200d58:	00b00793          	li	a5,11
    80200d5c:	04f70263          	beq	a4,a5,80200da0 <trap_entry_c+0x19c>
    80200d60:	fc043703          	ld	a4,-64(s0)
    80200d64:	00b00793          	li	a5,11
    80200d68:	06e7ec63          	bltu	a5,a4,80200de0 <trap_entry_c+0x1dc>
    80200d6c:	fc043703          	ld	a4,-64(s0)
    80200d70:	00900793          	li	a5,9
    80200d74:	02f70e63          	beq	a4,a5,80200db0 <trap_entry_c+0x1ac>
    80200d78:	fc043703          	ld	a4,-64(s0)
    80200d7c:	00900793          	li	a5,9
    80200d80:	06e7e063          	bltu	a5,a4,80200de0 <trap_entry_c+0x1dc>
    80200d84:	fc043703          	ld	a4,-64(s0)
    80200d88:	00200793          	li	a5,2
    80200d8c:	04f70263          	beq	a4,a5,80200dd0 <trap_entry_c+0x1cc>
    80200d90:	fc043703          	ld	a4,-64(s0)
    80200d94:	00800793          	li	a5,8
    80200d98:	02f70463          	beq	a4,a5,80200dc0 <trap_entry_c+0x1bc>
    80200d9c:	0440006f          	j	80200de0 <trap_entry_c+0x1dc>
    80200da0:	00003517          	auipc	a0,0x3
    80200da4:	cb050513          	addi	a0,a0,-848 # 80203a50 <log_init_baremetal+0x100>
    80200da8:	f6cff0ef          	jal	80200514 <platform_puts>
    80200dac:	0380006f          	j	80200de4 <trap_entry_c+0x1e0>
    80200db0:	00003517          	auipc	a0,0x3
    80200db4:	cb850513          	addi	a0,a0,-840 # 80203a68 <log_init_baremetal+0x118>
    80200db8:	f5cff0ef          	jal	80200514 <platform_puts>
    80200dbc:	0280006f          	j	80200de4 <trap_entry_c+0x1e0>
    80200dc0:	00003517          	auipc	a0,0x3
    80200dc4:	cc050513          	addi	a0,a0,-832 # 80203a80 <log_init_baremetal+0x130>
    80200dc8:	f4cff0ef          	jal	80200514 <platform_puts>
    80200dcc:	0180006f          	j	80200de4 <trap_entry_c+0x1e0>
    80200dd0:	00003517          	auipc	a0,0x3
    80200dd4:	cc850513          	addi	a0,a0,-824 # 80203a98 <log_init_baremetal+0x148>
    80200dd8:	f3cff0ef          	jal	80200514 <platform_puts>
    80200ddc:	0080006f          	j	80200de4 <trap_entry_c+0x1e0>
    80200de0:	00000013          	nop
    80200de4:	00003517          	auipc	a0,0x3
    80200de8:	ccc50513          	addi	a0,a0,-820 # 80203ab0 <log_init_baremetal+0x160>
    80200dec:	f28ff0ef          	jal	80200514 <platform_puts>
    80200df0:	fe843503          	ld	a0,-24(s0)
    80200df4:	d8cff0ef          	jal	80200380 <platform_put_hex64>
    80200df8:	00003517          	auipc	a0,0x3
    80200dfc:	cc850513          	addi	a0,a0,-824 # 80203ac0 <log_init_baremetal+0x170>
    80200e00:	f14ff0ef          	jal	80200514 <platform_puts>
    80200e04:	fd843503          	ld	a0,-40(s0)
    80200e08:	d78ff0ef          	jal	80200380 <platform_put_hex64>
    80200e0c:	00003517          	auipc	a0,0x3
    80200e10:	cbc50513          	addi	a0,a0,-836 # 80203ac8 <log_init_baremetal+0x178>
    80200e14:	f00ff0ef          	jal	80200514 <platform_puts>
    80200e18:	fe043503          	ld	a0,-32(s0)
    80200e1c:	d64ff0ef          	jal	80200380 <platform_put_hex64>
    80200e20:	00003517          	auipc	a0,0x3
    80200e24:	cb850513          	addi	a0,a0,-840 # 80203ad8 <log_init_baremetal+0x188>
    80200e28:	eecff0ef          	jal	80200514 <platform_puts>
    80200e2c:	fd043503          	ld	a0,-48(s0)
    80200e30:	d50ff0ef          	jal	80200380 <platform_put_hex64>
    80200e34:	00003517          	auipc	a0,0x3
    80200e38:	bbc50513          	addi	a0,a0,-1092 # 802039f0 <log_init_baremetal+0xa0>
    80200e3c:	ed8ff0ef          	jal	80200514 <platform_puts>
    80200e40:	00000013          	nop
    80200e44:	ffdff06f          	j	80200e40 <trap_entry_c+0x23c>
    80200e48:	00078513          	mv	a0,a5
    80200e4c:	04813083          	ld	ra,72(sp)
    80200e50:	04013403          	ld	s0,64(sp)
    80200e54:	05010113          	addi	sp,sp,80
    80200e58:	00008067          	ret

0000000080200e5c <memset>:
    80200e5c:	fb010113          	addi	sp,sp,-80
    80200e60:	04113423          	sd	ra,72(sp)
    80200e64:	04813023          	sd	s0,64(sp)
    80200e68:	05010413          	addi	s0,sp,80
    80200e6c:	fca43423          	sd	a0,-56(s0)
    80200e70:	00058793          	mv	a5,a1
    80200e74:	fac43c23          	sd	a2,-72(s0)
    80200e78:	fcf42223          	sw	a5,-60(s0)
    80200e7c:	fc843783          	ld	a5,-56(s0)
    80200e80:	fef43023          	sd	a5,-32(s0)
    80200e84:	fc442783          	lw	a5,-60(s0)
    80200e88:	fcf40fa3          	sb	a5,-33(s0)
    80200e8c:	fe043423          	sd	zero,-24(s0)
    80200e90:	0240006f          	j	80200eb4 <memset+0x58>
    80200e94:	fe043703          	ld	a4,-32(s0)
    80200e98:	fe843783          	ld	a5,-24(s0)
    80200e9c:	00f707b3          	add	a5,a4,a5
    80200ea0:	fdf44703          	lbu	a4,-33(s0)
    80200ea4:	00e78023          	sb	a4,0(a5)
    80200ea8:	fe843783          	ld	a5,-24(s0)
    80200eac:	00178793          	addi	a5,a5,1
    80200eb0:	fef43423          	sd	a5,-24(s0)
    80200eb4:	fe843703          	ld	a4,-24(s0)
    80200eb8:	fb843783          	ld	a5,-72(s0)
    80200ebc:	fcf76ce3          	bltu	a4,a5,80200e94 <memset+0x38>
    80200ec0:	fc843783          	ld	a5,-56(s0)
    80200ec4:	00078513          	mv	a0,a5
    80200ec8:	04813083          	ld	ra,72(sp)
    80200ecc:	04013403          	ld	s0,64(sp)
    80200ed0:	05010113          	addi	sp,sp,80
    80200ed4:	00008067          	ret

0000000080200ed8 <memcpy>:
    80200ed8:	fb010113          	addi	sp,sp,-80
    80200edc:	04113423          	sd	ra,72(sp)
    80200ee0:	04813023          	sd	s0,64(sp)
    80200ee4:	05010413          	addi	s0,sp,80
    80200ee8:	fca43423          	sd	a0,-56(s0)
    80200eec:	fcb43023          	sd	a1,-64(s0)
    80200ef0:	fac43c23          	sd	a2,-72(s0)
    80200ef4:	fc843783          	ld	a5,-56(s0)
    80200ef8:	fef43023          	sd	a5,-32(s0)
    80200efc:	fc043783          	ld	a5,-64(s0)
    80200f00:	fcf43c23          	sd	a5,-40(s0)
    80200f04:	fe043423          	sd	zero,-24(s0)
    80200f08:	0300006f          	j	80200f38 <memcpy+0x60>
    80200f0c:	fd843703          	ld	a4,-40(s0)
    80200f10:	fe843783          	ld	a5,-24(s0)
    80200f14:	00f70733          	add	a4,a4,a5
    80200f18:	fe043683          	ld	a3,-32(s0)
    80200f1c:	fe843783          	ld	a5,-24(s0)
    80200f20:	00f687b3          	add	a5,a3,a5
    80200f24:	00074703          	lbu	a4,0(a4)
    80200f28:	00e78023          	sb	a4,0(a5)
    80200f2c:	fe843783          	ld	a5,-24(s0)
    80200f30:	00178793          	addi	a5,a5,1
    80200f34:	fef43423          	sd	a5,-24(s0)
    80200f38:	fe843703          	ld	a4,-24(s0)
    80200f3c:	fb843783          	ld	a5,-72(s0)
    80200f40:	fcf766e3          	bltu	a4,a5,80200f0c <memcpy+0x34>
    80200f44:	fc843783          	ld	a5,-56(s0)
    80200f48:	00078513          	mv	a0,a5
    80200f4c:	04813083          	ld	ra,72(sp)
    80200f50:	04013403          	ld	s0,64(sp)
    80200f54:	05010113          	addi	sp,sp,80
    80200f58:	00008067          	ret

0000000080200f5c <memcmp>:
    80200f5c:	fb010113          	addi	sp,sp,-80
    80200f60:	04113423          	sd	ra,72(sp)
    80200f64:	04813023          	sd	s0,64(sp)
    80200f68:	05010413          	addi	s0,sp,80
    80200f6c:	fca43423          	sd	a0,-56(s0)
    80200f70:	fcb43023          	sd	a1,-64(s0)
    80200f74:	fac43c23          	sd	a2,-72(s0)
    80200f78:	fc843783          	ld	a5,-56(s0)
    80200f7c:	fef43023          	sd	a5,-32(s0)
    80200f80:	fc043783          	ld	a5,-64(s0)
    80200f84:	fcf43c23          	sd	a5,-40(s0)
    80200f88:	fe043423          	sd	zero,-24(s0)
    80200f8c:	06c0006f          	j	80200ff8 <memcmp+0x9c>
    80200f90:	fe043703          	ld	a4,-32(s0)
    80200f94:	fe843783          	ld	a5,-24(s0)
    80200f98:	00f707b3          	add	a5,a4,a5
    80200f9c:	0007c683          	lbu	a3,0(a5)
    80200fa0:	fd843703          	ld	a4,-40(s0)
    80200fa4:	fe843783          	ld	a5,-24(s0)
    80200fa8:	00f707b3          	add	a5,a4,a5
    80200fac:	0007c783          	lbu	a5,0(a5)
    80200fb0:	00068713          	mv	a4,a3
    80200fb4:	02f70c63          	beq	a4,a5,80200fec <memcmp+0x90>
    80200fb8:	fe043703          	ld	a4,-32(s0)
    80200fbc:	fe843783          	ld	a5,-24(s0)
    80200fc0:	00f707b3          	add	a5,a4,a5
    80200fc4:	0007c783          	lbu	a5,0(a5)
    80200fc8:	0007871b          	sext.w	a4,a5
    80200fcc:	fd843683          	ld	a3,-40(s0)
    80200fd0:	fe843783          	ld	a5,-24(s0)
    80200fd4:	00f687b3          	add	a5,a3,a5
    80200fd8:	0007c783          	lbu	a5,0(a5)
    80200fdc:	0007879b          	sext.w	a5,a5
    80200fe0:	40f707bb          	subw	a5,a4,a5
    80200fe4:	0007879b          	sext.w	a5,a5
    80200fe8:	0200006f          	j	80201008 <memcmp+0xac>
    80200fec:	fe843783          	ld	a5,-24(s0)
    80200ff0:	00178793          	addi	a5,a5,1
    80200ff4:	fef43423          	sd	a5,-24(s0)
    80200ff8:	fe843703          	ld	a4,-24(s0)
    80200ffc:	fb843783          	ld	a5,-72(s0)
    80201000:	f8f768e3          	bltu	a4,a5,80200f90 <memcmp+0x34>
    80201004:	00000793          	li	a5,0
    80201008:	00078513          	mv	a0,a5
    8020100c:	04813083          	ld	ra,72(sp)
    80201010:	04013403          	ld	s0,64(sp)
    80201014:	05010113          	addi	sp,sp,80
    80201018:	00008067          	ret

000000008020101c <strlen>:
    8020101c:	fd010113          	addi	sp,sp,-48
    80201020:	02113423          	sd	ra,40(sp)
    80201024:	02813023          	sd	s0,32(sp)
    80201028:	03010413          	addi	s0,sp,48
    8020102c:	fca43c23          	sd	a0,-40(s0)
    80201030:	fe043423          	sd	zero,-24(s0)
    80201034:	0100006f          	j	80201044 <strlen+0x28>
    80201038:	fe843783          	ld	a5,-24(s0)
    8020103c:	00178793          	addi	a5,a5,1
    80201040:	fef43423          	sd	a5,-24(s0)
    80201044:	fd843703          	ld	a4,-40(s0)
    80201048:	fe843783          	ld	a5,-24(s0)
    8020104c:	00f707b3          	add	a5,a4,a5
    80201050:	0007c783          	lbu	a5,0(a5)
    80201054:	fe0792e3          	bnez	a5,80201038 <strlen+0x1c>
    80201058:	fe843783          	ld	a5,-24(s0)
    8020105c:	00078513          	mv	a0,a5
    80201060:	02813083          	ld	ra,40(sp)
    80201064:	02013403          	ld	s0,32(sp)
    80201068:	03010113          	addi	sp,sp,48
    8020106c:	00008067          	ret

0000000080201070 <tf_clear>:
    80201070:	fe010113          	addi	sp,sp,-32
    80201074:	00113c23          	sd	ra,24(sp)
    80201078:	00813823          	sd	s0,16(sp)
    8020107c:	02010413          	addi	s0,sp,32
    80201080:	fea43423          	sd	a0,-24(s0)
    80201084:	12000613          	li	a2,288
    80201088:	00000593          	li	a1,0
    8020108c:	fe843503          	ld	a0,-24(s0)
    80201090:	dcdff0ef          	jal	80200e5c <memset>
    80201094:	00000013          	nop
    80201098:	01813083          	ld	ra,24(sp)
    8020109c:	01013403          	ld	s0,16(sp)
    802010a0:	02010113          	addi	sp,sp,32
    802010a4:	00008067          	ret

00000000802010a8 <thread_by_tid>:
    802010a8:	fe010113          	addi	sp,sp,-32
    802010ac:	00113c23          	sd	ra,24(sp)
    802010b0:	00813823          	sd	s0,16(sp)
    802010b4:	02010413          	addi	s0,sp,32
    802010b8:	00050793          	mv	a5,a0
    802010bc:	fef42623          	sw	a5,-20(s0)
    802010c0:	fec42783          	lw	a5,-20(s0)
    802010c4:	0007879b          	sext.w	a5,a5
    802010c8:	0007ca63          	bltz	a5,802010dc <thread_by_tid+0x34>
    802010cc:	fec42783          	lw	a5,-20(s0)
    802010d0:	0007871b          	sext.w	a4,a5
    802010d4:	00900793          	li	a5,9
    802010d8:	00e7d663          	bge	a5,a4,802010e4 <thread_by_tid+0x3c>
    802010dc:	00000793          	li	a5,0
    802010e0:	01c0006f          	j	802010fc <thread_by_tid+0x54>
    802010e4:	fec42703          	lw	a4,-20(s0)
    802010e8:	16000793          	li	a5,352
    802010ec:	02f70733          	mul	a4,a4,a5
    802010f0:	00004797          	auipc	a5,0x4
    802010f4:	cf078793          	addi	a5,a5,-784 # 80204de0 <g_threads>
    802010f8:	00f707b3          	add	a5,a4,a5
    802010fc:	00078513          	mv	a0,a5
    80201100:	01813083          	ld	ra,24(sp)
    80201104:	01013403          	ld	s0,16(sp)
    80201108:	02010113          	addi	sp,sp,32
    8020110c:	00008067          	ret

0000000080201110 <alloc_thread_slot>:
    80201110:	fe010113          	addi	sp,sp,-32
    80201114:	00113c23          	sd	ra,24(sp)
    80201118:	00813823          	sd	s0,16(sp)
    8020111c:	02010413          	addi	s0,sp,32
    80201120:	00100793          	li	a5,1
    80201124:	fef42623          	sw	a5,-20(s0)
    80201128:	0380006f          	j	80201160 <alloc_thread_slot+0x50>
    8020112c:	00004717          	auipc	a4,0x4
    80201130:	cb470713          	addi	a4,a4,-844 # 80204de0 <g_threads>
    80201134:	fec42683          	lw	a3,-20(s0)
    80201138:	16000793          	li	a5,352
    8020113c:	02f687b3          	mul	a5,a3,a5
    80201140:	00f707b3          	add	a5,a4,a5
    80201144:	0047a783          	lw	a5,4(a5)
    80201148:	00079663          	bnez	a5,80201154 <alloc_thread_slot+0x44>
    8020114c:	fec42783          	lw	a5,-20(s0)
    80201150:	0240006f          	j	80201174 <alloc_thread_slot+0x64>
    80201154:	fec42783          	lw	a5,-20(s0)
    80201158:	0017879b          	addiw	a5,a5,1
    8020115c:	fef42623          	sw	a5,-20(s0)
    80201160:	fec42783          	lw	a5,-20(s0)
    80201164:	0007871b          	sext.w	a4,a5
    80201168:	00900793          	li	a5,9
    8020116c:	fce7d0e3          	bge	a5,a4,8020112c <alloc_thread_slot+0x1c>
    80201170:	fff00793          	li	a5,-1
    80201174:	00078513          	mv	a0,a5
    80201178:	01813083          	ld	ra,24(sp)
    8020117c:	01013403          	ld	s0,16(sp)
    80201180:	02010113          	addi	sp,sp,32
    80201184:	00008067          	ret

0000000080201188 <init_thread_context_s>:
    80201188:	fb010113          	addi	sp,sp,-80
    8020118c:	04113423          	sd	ra,72(sp)
    80201190:	04813023          	sd	s0,64(sp)
    80201194:	05010413          	addi	s0,sp,80
    80201198:	fca43423          	sd	a0,-56(s0)
    8020119c:	fcb43023          	sd	a1,-64(s0)
    802011a0:	fac43c23          	sd	a2,-72(s0)
    802011a4:	fc843783          	ld	a5,-56(s0)
    802011a8:	02078793          	addi	a5,a5,32
    802011ac:	fef43423          	sd	a5,-24(s0)
    802011b0:	fe843503          	ld	a0,-24(s0)
    802011b4:	ebdff0ef          	jal	80201070 <tf_clear>
    802011b8:	fc843783          	ld	a5,-56(s0)
    802011bc:	1407b703          	ld	a4,320(a5)
    802011c0:	000017b7          	lui	a5,0x1
    802011c4:	00f707b3          	add	a5,a4,a5
    802011c8:	fef43023          	sd	a5,-32(s0)
    802011cc:	fe043783          	ld	a5,-32(s0)
    802011d0:	ff07f793          	andi	a5,a5,-16
    802011d4:	fef43023          	sd	a5,-32(s0)
    802011d8:	fe843783          	ld	a5,-24(s0)
    802011dc:	fe043703          	ld	a4,-32(s0)
    802011e0:	00e7b423          	sd	a4,8(a5) # 1008 <STACK_SIZE+0x8>
    802011e4:	fc043703          	ld	a4,-64(s0)
    802011e8:	fe843783          	ld	a5,-24(s0)
    802011ec:	0ee7bc23          	sd	a4,248(a5)
    802011f0:	fb843703          	ld	a4,-72(s0)
    802011f4:	fe843783          	ld	a5,-24(s0)
    802011f8:	04e7b423          	sd	a4,72(a5)
    802011fc:	100027f3          	csrr	a5,sstatus
    80201200:	fcf43c23          	sd	a5,-40(s0)
    80201204:	fd843783          	ld	a5,-40(s0)
    80201208:	fcf43823          	sd	a5,-48(s0)
    8020120c:	fd043783          	ld	a5,-48(s0)
    80201210:	efd7f793          	andi	a5,a5,-259
    80201214:	fcf43823          	sd	a5,-48(s0)
    80201218:	fd043783          	ld	a5,-48(s0)
    8020121c:	1007e793          	ori	a5,a5,256
    80201220:	fcf43823          	sd	a5,-48(s0)
    80201224:	fd043783          	ld	a5,-48(s0)
    80201228:	0207e793          	ori	a5,a5,32
    8020122c:	fcf43823          	sd	a5,-48(s0)
    80201230:	fe843783          	ld	a5,-24(s0)
    80201234:	fd043703          	ld	a4,-48(s0)
    80201238:	10e7b023          	sd	a4,256(a5)
    8020123c:	00000013          	nop
    80201240:	04813083          	ld	ra,72(sp)
    80201244:	04013403          	ld	s0,64(sp)
    80201248:	05010113          	addi	sp,sp,80
    8020124c:	00008067          	ret

0000000080201250 <init_thread_context_u>:
    80201250:	fb010113          	addi	sp,sp,-80
    80201254:	04113423          	sd	ra,72(sp)
    80201258:	04813023          	sd	s0,64(sp)
    8020125c:	05010413          	addi	s0,sp,80
    80201260:	fca43423          	sd	a0,-56(s0)
    80201264:	fcb43023          	sd	a1,-64(s0)
    80201268:	fac43c23          	sd	a2,-72(s0)
    8020126c:	fc843783          	ld	a5,-56(s0)
    80201270:	02078793          	addi	a5,a5,32
    80201274:	fef43423          	sd	a5,-24(s0)
    80201278:	fe843503          	ld	a0,-24(s0)
    8020127c:	df5ff0ef          	jal	80201070 <tf_clear>
    80201280:	fc843783          	ld	a5,-56(s0)
    80201284:	1407b703          	ld	a4,320(a5)
    80201288:	000017b7          	lui	a5,0x1
    8020128c:	00f707b3          	add	a5,a4,a5
    80201290:	fef43023          	sd	a5,-32(s0)
    80201294:	fe043783          	ld	a5,-32(s0)
    80201298:	ff07f793          	andi	a5,a5,-16
    8020129c:	fef43023          	sd	a5,-32(s0)
    802012a0:	fe843783          	ld	a5,-24(s0)
    802012a4:	fe043703          	ld	a4,-32(s0)
    802012a8:	00e7b423          	sd	a4,8(a5) # 1008 <STACK_SIZE+0x8>
    802012ac:	fc043703          	ld	a4,-64(s0)
    802012b0:	fe843783          	ld	a5,-24(s0)
    802012b4:	0ee7bc23          	sd	a4,248(a5)
    802012b8:	fb843703          	ld	a4,-72(s0)
    802012bc:	fe843783          	ld	a5,-24(s0)
    802012c0:	04e7b423          	sd	a4,72(a5)
    802012c4:	100027f3          	csrr	a5,sstatus
    802012c8:	fcf43c23          	sd	a5,-40(s0)
    802012cc:	fd843783          	ld	a5,-40(s0)
    802012d0:	fcf43823          	sd	a5,-48(s0)
    802012d4:	fd043783          	ld	a5,-48(s0)
    802012d8:	efd7f793          	andi	a5,a5,-259
    802012dc:	fcf43823          	sd	a5,-48(s0)
    802012e0:	fd043783          	ld	a5,-48(s0)
    802012e4:	0207e793          	ori	a5,a5,32
    802012e8:	fcf43823          	sd	a5,-48(s0)
    802012ec:	fe843783          	ld	a5,-24(s0)
    802012f0:	fd043703          	ld	a4,-48(s0)
    802012f4:	10e7b023          	sd	a4,256(a5)
    802012f8:	00000013          	nop
    802012fc:	04813083          	ld	ra,72(sp)
    80201300:	04013403          	ld	s0,64(sp)
    80201304:	05010113          	addi	sp,sp,80
    80201308:	00008067          	ret

000000008020130c <idle_main>:
    8020130c:	fe010113          	addi	sp,sp,-32
    80201310:	00113c23          	sd	ra,24(sp)
    80201314:	00813823          	sd	s0,16(sp)
    80201318:	02010413          	addi	s0,sp,32
    8020131c:	fea43423          	sd	a0,-24(s0)
    80201320:	a30ff0ef          	jal	80200550 <platform_idle>
    80201324:	ffdff06f          	j	80201320 <idle_main+0x14>

0000000080201328 <recycle_thread>:
    80201328:	fd010113          	addi	sp,sp,-48
    8020132c:	02113423          	sd	ra,40(sp)
    80201330:	02813023          	sd	s0,32(sp)
    80201334:	03010413          	addi	s0,sp,48
    80201338:	00050793          	mv	a5,a0
    8020133c:	fcf42e23          	sw	a5,-36(s0)
    80201340:	fdc42783          	lw	a5,-36(s0)
    80201344:	0007879b          	sext.w	a5,a5
    80201348:	08f05663          	blez	a5,802013d4 <recycle_thread+0xac>
    8020134c:	fdc42783          	lw	a5,-36(s0)
    80201350:	0007871b          	sext.w	a4,a5
    80201354:	00900793          	li	a5,9
    80201358:	06e7ce63          	blt	a5,a4,802013d4 <recycle_thread+0xac>
    8020135c:	fdc42703          	lw	a4,-36(s0)
    80201360:	16000793          	li	a5,352
    80201364:	02f70733          	mul	a4,a4,a5
    80201368:	00004797          	auipc	a5,0x4
    8020136c:	a7878793          	addi	a5,a5,-1416 # 80204de0 <g_threads>
    80201370:	00f707b3          	add	a5,a4,a5
    80201374:	fef43423          	sd	a5,-24(s0)
    80201378:	fe843783          	ld	a5,-24(s0)
    8020137c:	0007a223          	sw	zero,4(a5)
    80201380:	fe843783          	ld	a5,-24(s0)
    80201384:	0007b423          	sd	zero,8(a5)
    80201388:	fe843783          	ld	a5,-24(s0)
    8020138c:	00002717          	auipc	a4,0x2
    80201390:	75c70713          	addi	a4,a4,1884 # 80203ae8 <log_init_baremetal+0x198>
    80201394:	00e7b823          	sd	a4,16(a5)
    80201398:	fe843783          	ld	a5,-24(s0)
    8020139c:	1407a423          	sw	zero,328(a5)
    802013a0:	fe843783          	ld	a5,-24(s0)
    802013a4:	fff00713          	li	a4,-1
    802013a8:	14e7a623          	sw	a4,332(a5)
    802013ac:	fe843783          	ld	a5,-24(s0)
    802013b0:	fff00713          	li	a4,-1
    802013b4:	14e7a823          	sw	a4,336(a5)
    802013b8:	fe843783          	ld	a5,-24(s0)
    802013bc:	1407bc23          	sd	zero,344(a5)
    802013c0:	fe843783          	ld	a5,-24(s0)
    802013c4:	02078793          	addi	a5,a5,32
    802013c8:	00078513          	mv	a0,a5
    802013cc:	ca5ff0ef          	jal	80201070 <tf_clear>
    802013d0:	0080006f          	j	802013d8 <recycle_thread+0xb0>
    802013d4:	00000013          	nop
    802013d8:	02813083          	ld	ra,40(sp)
    802013dc:	02013403          	ld	s0,32(sp)
    802013e0:	03010113          	addi	sp,sp,48
    802013e4:	00008067          	ret

00000000802013e8 <threads_init>:
    802013e8:	fe010113          	addi	sp,sp,-32
    802013ec:	00113c23          	sd	ra,24(sp)
    802013f0:	00813823          	sd	s0,16(sp)
    802013f4:	02010413          	addi	s0,sp,32
    802013f8:	0000e797          	auipc	a5,0xe
    802013fc:	7b078793          	addi	a5,a5,1968 # 8020fba8 <g_ticks>
    80201400:	0007b023          	sd	zero,0(a5)
    80201404:	0000e797          	auipc	a5,0xe
    80201408:	79c78793          	addi	a5,a5,1948 # 8020fba0 <g_current_tid>
    8020140c:	00100713          	li	a4,1
    80201410:	00e7a023          	sw	a4,0(a5)
    80201414:	fe042623          	sw	zero,-20(s0)
    80201418:	1440006f          	j	8020155c <threads_init+0x174>
    8020141c:	00004717          	auipc	a4,0x4
    80201420:	9c470713          	addi	a4,a4,-1596 # 80204de0 <g_threads>
    80201424:	fec42683          	lw	a3,-20(s0)
    80201428:	16000793          	li	a5,352
    8020142c:	02f687b3          	mul	a5,a3,a5
    80201430:	00f707b3          	add	a5,a4,a5
    80201434:	fec42703          	lw	a4,-20(s0)
    80201438:	00e7a023          	sw	a4,0(a5)
    8020143c:	00004717          	auipc	a4,0x4
    80201440:	9a470713          	addi	a4,a4,-1628 # 80204de0 <g_threads>
    80201444:	fec42683          	lw	a3,-20(s0)
    80201448:	16000793          	li	a5,352
    8020144c:	02f687b3          	mul	a5,a3,a5
    80201450:	00f707b3          	add	a5,a4,a5
    80201454:	0007a223          	sw	zero,4(a5)
    80201458:	00004717          	auipc	a4,0x4
    8020145c:	98870713          	addi	a4,a4,-1656 # 80204de0 <g_threads>
    80201460:	fec42683          	lw	a3,-20(s0)
    80201464:	16000793          	li	a5,352
    80201468:	02f687b3          	mul	a5,a3,a5
    8020146c:	00f707b3          	add	a5,a4,a5
    80201470:	0007b423          	sd	zero,8(a5)
    80201474:	00004717          	auipc	a4,0x4
    80201478:	96c70713          	addi	a4,a4,-1684 # 80204de0 <g_threads>
    8020147c:	fec42683          	lw	a3,-20(s0)
    80201480:	16000793          	li	a5,352
    80201484:	02f687b3          	mul	a5,a3,a5
    80201488:	00f707b3          	add	a5,a4,a5
    8020148c:	00002717          	auipc	a4,0x2
    80201490:	65c70713          	addi	a4,a4,1628 # 80203ae8 <log_init_baremetal+0x198>
    80201494:	00e7b823          	sd	a4,16(a5)
    80201498:	00004717          	auipc	a4,0x4
    8020149c:	94870713          	addi	a4,a4,-1720 # 80204de0 <g_threads>
    802014a0:	fec42683          	lw	a3,-20(s0)
    802014a4:	16000793          	li	a5,352
    802014a8:	02f687b3          	mul	a5,a3,a5
    802014ac:	00f707b3          	add	a5,a4,a5
    802014b0:	1407b023          	sd	zero,320(a5)
    802014b4:	00004717          	auipc	a4,0x4
    802014b8:	92c70713          	addi	a4,a4,-1748 # 80204de0 <g_threads>
    802014bc:	fec42683          	lw	a3,-20(s0)
    802014c0:	16000793          	li	a5,352
    802014c4:	02f687b3          	mul	a5,a3,a5
    802014c8:	00f707b3          	add	a5,a4,a5
    802014cc:	1407a423          	sw	zero,328(a5)
    802014d0:	00004717          	auipc	a4,0x4
    802014d4:	91070713          	addi	a4,a4,-1776 # 80204de0 <g_threads>
    802014d8:	fec42683          	lw	a3,-20(s0)
    802014dc:	16000793          	li	a5,352
    802014e0:	02f687b3          	mul	a5,a3,a5
    802014e4:	00f707b3          	add	a5,a4,a5
    802014e8:	fff00713          	li	a4,-1
    802014ec:	14e7a623          	sw	a4,332(a5)
    802014f0:	00004717          	auipc	a4,0x4
    802014f4:	8f070713          	addi	a4,a4,-1808 # 80204de0 <g_threads>
    802014f8:	fec42683          	lw	a3,-20(s0)
    802014fc:	16000793          	li	a5,352
    80201500:	02f687b3          	mul	a5,a3,a5
    80201504:	00f707b3          	add	a5,a4,a5
    80201508:	fff00713          	li	a4,-1
    8020150c:	14e7a823          	sw	a4,336(a5)
    80201510:	00004717          	auipc	a4,0x4
    80201514:	8d070713          	addi	a4,a4,-1840 # 80204de0 <g_threads>
    80201518:	fec42683          	lw	a3,-20(s0)
    8020151c:	16000793          	li	a5,352
    80201520:	02f687b3          	mul	a5,a3,a5
    80201524:	00f707b3          	add	a5,a4,a5
    80201528:	1407bc23          	sd	zero,344(a5)
    8020152c:	fec42703          	lw	a4,-20(s0)
    80201530:	16000793          	li	a5,352
    80201534:	02f707b3          	mul	a5,a4,a5
    80201538:	02078713          	addi	a4,a5,32
    8020153c:	00004797          	auipc	a5,0x4
    80201540:	8a478793          	addi	a5,a5,-1884 # 80204de0 <g_threads>
    80201544:	00f707b3          	add	a5,a4,a5
    80201548:	00078513          	mv	a0,a5
    8020154c:	b25ff0ef          	jal	80201070 <tf_clear>
    80201550:	fec42783          	lw	a5,-20(s0)
    80201554:	0017879b          	addiw	a5,a5,1
    80201558:	fef42623          	sw	a5,-20(s0)
    8020155c:	fec42783          	lw	a5,-20(s0)
    80201560:	0007871b          	sext.w	a4,a5
    80201564:	00900793          	li	a5,9
    80201568:	eae7dae3          	bge	a5,a4,8020141c <threads_init+0x34>
    8020156c:	00004797          	auipc	a5,0x4
    80201570:	87478793          	addi	a5,a5,-1932 # 80204de0 <g_threads>
    80201574:	fef43023          	sd	a5,-32(s0)
    80201578:	fe043783          	ld	a5,-32(s0)
    8020157c:	00100713          	li	a4,1
    80201580:	00e7a223          	sw	a4,4(a5)
    80201584:	fe043783          	ld	a5,-32(s0)
    80201588:	00002717          	auipc	a4,0x2
    8020158c:	56870713          	addi	a4,a4,1384 # 80203af0 <log_init_baremetal+0x1a0>
    80201590:	00e7b823          	sd	a4,16(a5)
    80201594:	fe043783          	ld	a5,-32(s0)
    80201598:	00004717          	auipc	a4,0x4
    8020159c:	60870713          	addi	a4,a4,1544 # 80205ba0 <g_thread_stacks>
    802015a0:	14e7b023          	sd	a4,320(a5)
    802015a4:	00000613          	li	a2,0
    802015a8:	00000597          	auipc	a1,0x0
    802015ac:	d6458593          	addi	a1,a1,-668 # 8020130c <idle_main>
    802015b0:	fe043503          	ld	a0,-32(s0)
    802015b4:	bd5ff0ef          	jal	80201188 <init_thread_context_s>
    802015b8:	00000013          	nop
    802015bc:	01813083          	ld	ra,24(sp)
    802015c0:	01013403          	ld	s0,16(sp)
    802015c4:	02010113          	addi	sp,sp,32
    802015c8:	00008067          	ret

00000000802015cc <thread_create_kern>:
    802015cc:	fc010113          	addi	sp,sp,-64
    802015d0:	02113c23          	sd	ra,56(sp)
    802015d4:	02813823          	sd	s0,48(sp)
    802015d8:	04010413          	addi	s0,sp,64
    802015dc:	fca43c23          	sd	a0,-40(s0)
    802015e0:	fcb43823          	sd	a1,-48(s0)
    802015e4:	fcc43423          	sd	a2,-56(s0)
    802015e8:	fd843783          	ld	a5,-40(s0)
    802015ec:	02079863          	bnez	a5,8020161c <thread_create_kern+0x50>
    802015f0:	00002717          	auipc	a4,0x2
    802015f4:	50870713          	addi	a4,a4,1288 # 80203af8 <log_init_baremetal+0x1a8>
    802015f8:	00002697          	auipc	a3,0x2
    802015fc:	59868693          	addi	a3,a3,1432 # 80203b90 <__func__.1>
    80201600:	0be00613          	li	a2,190
    80201604:	00002597          	auipc	a1,0x2
    80201608:	51458593          	addi	a1,a1,1300 # 80203b18 <log_init_baremetal+0x1c8>
    8020160c:	00300513          	li	a0,3
    80201610:	5d5010ef          	jal	802033e4 <log_printf>
    80201614:	fff00793          	li	a5,-1
    80201618:	0f00006f          	j	80201708 <thread_create_kern+0x13c>
    8020161c:	af5ff0ef          	jal	80201110 <alloc_thread_slot>
    80201620:	00050793          	mv	a5,a0
    80201624:	fef42623          	sw	a5,-20(s0)
    80201628:	fec42783          	lw	a5,-20(s0)
    8020162c:	0007879b          	sext.w	a5,a5
    80201630:	0207d863          	bgez	a5,80201660 <thread_create_kern+0x94>
    80201634:	00002717          	auipc	a4,0x2
    80201638:	4f470713          	addi	a4,a4,1268 # 80203b28 <log_init_baremetal+0x1d8>
    8020163c:	00002697          	auipc	a3,0x2
    80201640:	55468693          	addi	a3,a3,1364 # 80203b90 <__func__.1>
    80201644:	0c400613          	li	a2,196
    80201648:	00002597          	auipc	a1,0x2
    8020164c:	4d058593          	addi	a1,a1,1232 # 80203b18 <log_init_baremetal+0x1c8>
    80201650:	00200513          	li	a0,2
    80201654:	591010ef          	jal	802033e4 <log_printf>
    80201658:	fff00793          	li	a5,-1
    8020165c:	0ac0006f          	j	80201708 <thread_create_kern+0x13c>
    80201660:	fec42703          	lw	a4,-20(s0)
    80201664:	16000793          	li	a5,352
    80201668:	02f70733          	mul	a4,a4,a5
    8020166c:	00003797          	auipc	a5,0x3
    80201670:	77478793          	addi	a5,a5,1908 # 80204de0 <g_threads>
    80201674:	00f707b3          	add	a5,a4,a5
    80201678:	fef43023          	sd	a5,-32(s0)
    8020167c:	fe043783          	ld	a5,-32(s0)
    80201680:	00100713          	li	a4,1
    80201684:	00e7a223          	sw	a4,4(a5)
    80201688:	fe043783          	ld	a5,-32(s0)
    8020168c:	0007b423          	sd	zero,8(a5)
    80201690:	fc843783          	ld	a5,-56(s0)
    80201694:	00078663          	beqz	a5,802016a0 <thread_create_kern+0xd4>
    80201698:	fc843783          	ld	a5,-56(s0)
    8020169c:	00c0006f          	j	802016a8 <thread_create_kern+0xdc>
    802016a0:	00002797          	auipc	a5,0x2
    802016a4:	4a878793          	addi	a5,a5,1192 # 80203b48 <log_init_baremetal+0x1f8>
    802016a8:	fe043703          	ld	a4,-32(s0)
    802016ac:	00f73823          	sd	a5,16(a4)
    802016b0:	fec42783          	lw	a5,-20(s0)
    802016b4:	00c79713          	slli	a4,a5,0xc
    802016b8:	00004797          	auipc	a5,0x4
    802016bc:	4e878793          	addi	a5,a5,1256 # 80205ba0 <g_thread_stacks>
    802016c0:	00f70733          	add	a4,a4,a5
    802016c4:	fe043783          	ld	a5,-32(s0)
    802016c8:	14e7b023          	sd	a4,320(a5)
    802016cc:	fe043783          	ld	a5,-32(s0)
    802016d0:	1407a423          	sw	zero,328(a5)
    802016d4:	fe043783          	ld	a5,-32(s0)
    802016d8:	fff00713          	li	a4,-1
    802016dc:	14e7a623          	sw	a4,332(a5)
    802016e0:	fe043783          	ld	a5,-32(s0)
    802016e4:	fff00713          	li	a4,-1
    802016e8:	14e7a823          	sw	a4,336(a5)
    802016ec:	fe043783          	ld	a5,-32(s0)
    802016f0:	1407bc23          	sd	zero,344(a5)
    802016f4:	fd043603          	ld	a2,-48(s0)
    802016f8:	fd843583          	ld	a1,-40(s0)
    802016fc:	fe043503          	ld	a0,-32(s0)
    80201700:	a89ff0ef          	jal	80201188 <init_thread_context_s>
    80201704:	fec42783          	lw	a5,-20(s0)
    80201708:	00078513          	mv	a0,a5
    8020170c:	03813083          	ld	ra,56(sp)
    80201710:	03013403          	ld	s0,48(sp)
    80201714:	04010113          	addi	sp,sp,64
    80201718:	00008067          	ret

000000008020171c <thread_create_user>:
    8020171c:	fc010113          	addi	sp,sp,-64
    80201720:	02113c23          	sd	ra,56(sp)
    80201724:	02813823          	sd	s0,48(sp)
    80201728:	04010413          	addi	s0,sp,64
    8020172c:	fca43c23          	sd	a0,-40(s0)
    80201730:	fcb43823          	sd	a1,-48(s0)
    80201734:	fcc43423          	sd	a2,-56(s0)
    80201738:	9d9ff0ef          	jal	80201110 <alloc_thread_slot>
    8020173c:	00050793          	mv	a5,a0
    80201740:	fef42623          	sw	a5,-20(s0)
    80201744:	fec42783          	lw	a5,-20(s0)
    80201748:	0007879b          	sext.w	a5,a5
    8020174c:	0007d663          	bgez	a5,80201758 <thread_create_user+0x3c>
    80201750:	fff00793          	li	a5,-1
    80201754:	0900006f          	j	802017e4 <thread_create_user+0xc8>
    80201758:	fec42703          	lw	a4,-20(s0)
    8020175c:	16000793          	li	a5,352
    80201760:	02f70733          	mul	a4,a4,a5
    80201764:	00003797          	auipc	a5,0x3
    80201768:	67c78793          	addi	a5,a5,1660 # 80204de0 <g_threads>
    8020176c:	00f707b3          	add	a5,a4,a5
    80201770:	fef43023          	sd	a5,-32(s0)
    80201774:	fe043783          	ld	a5,-32(s0)
    80201778:	00100713          	li	a4,1
    8020177c:	00e7a223          	sw	a4,4(a5)
    80201780:	fe043783          	ld	a5,-32(s0)
    80201784:	0007b423          	sd	zero,8(a5)
    80201788:	fc843783          	ld	a5,-56(s0)
    8020178c:	00078663          	beqz	a5,80201798 <thread_create_user+0x7c>
    80201790:	fc843783          	ld	a5,-56(s0)
    80201794:	00c0006f          	j	802017a0 <thread_create_user+0x84>
    80201798:	00002797          	auipc	a5,0x2
    8020179c:	3b878793          	addi	a5,a5,952 # 80203b50 <log_init_baremetal+0x200>
    802017a0:	fe043703          	ld	a4,-32(s0)
    802017a4:	00f73823          	sd	a5,16(a4)
    802017a8:	fec42783          	lw	a5,-20(s0)
    802017ac:	00c79713          	slli	a4,a5,0xc
    802017b0:	00004797          	auipc	a5,0x4
    802017b4:	3f078793          	addi	a5,a5,1008 # 80205ba0 <g_thread_stacks>
    802017b8:	00f70733          	add	a4,a4,a5
    802017bc:	fe043783          	ld	a5,-32(s0)
    802017c0:	14e7b023          	sd	a4,320(a5)
    802017c4:	fe043783          	ld	a5,-32(s0)
    802017c8:	00100713          	li	a4,1
    802017cc:	00e7ac23          	sw	a4,24(a5)
    802017d0:	fd043603          	ld	a2,-48(s0)
    802017d4:	fd843583          	ld	a1,-40(s0)
    802017d8:	fe043503          	ld	a0,-32(s0)
    802017dc:	a75ff0ef          	jal	80201250 <init_thread_context_u>
    802017e0:	fec42783          	lw	a5,-20(s0)
    802017e4:	00078513          	mv	a0,a5
    802017e8:	03813083          	ld	ra,56(sp)
    802017ec:	03013403          	ld	s0,48(sp)
    802017f0:	04010113          	addi	sp,sp,64
    802017f4:	00008067          	ret

00000000802017f8 <threads_exec>:
    802017f8:	fd010113          	addi	sp,sp,-48
    802017fc:	02113423          	sd	ra,40(sp)
    80201800:	02813023          	sd	s0,32(sp)
    80201804:	03010413          	addi	s0,sp,48
    80201808:	fca43c23          	sd	a0,-40(s0)
    8020180c:	fcb43823          	sd	a1,-48(s0)
    80201810:	00002617          	auipc	a2,0x2
    80201814:	34860613          	addi	a2,a2,840 # 80203b58 <log_init_baremetal+0x208>
    80201818:	fd043583          	ld	a1,-48(s0)
    8020181c:	fd843503          	ld	a0,-40(s0)
    80201820:	efdff0ef          	jal	8020171c <thread_create_user>
    80201824:	00050793          	mv	a5,a0
    80201828:	fef42623          	sw	a5,-20(s0)
    8020182c:	fec42783          	lw	a5,-20(s0)
    80201830:	0007879b          	sext.w	a5,a5
    80201834:	0207d463          	bgez	a5,8020185c <threads_exec+0x64>
    80201838:	00002717          	auipc	a4,0x2
    8020183c:	33070713          	addi	a4,a4,816 # 80203b68 <log_init_baremetal+0x218>
    80201840:	00002697          	auipc	a3,0x2
    80201844:	36868693          	addi	a3,a3,872 # 80203ba8 <__func__.0>
    80201848:	0f200613          	li	a2,242
    8020184c:	00002597          	auipc	a1,0x2
    80201850:	2cc58593          	addi	a1,a1,716 # 80203b18 <log_init_baremetal+0x1c8>
    80201854:	00100513          	li	a0,1
    80201858:	38d010ef          	jal	802033e4 <log_printf>
    8020185c:	0000e797          	auipc	a5,0xe
    80201860:	34478793          	addi	a5,a5,836 # 8020fba0 <g_current_tid>
    80201864:	fec42703          	lw	a4,-20(s0)
    80201868:	00e7a023          	sw	a4,0(a5)
    8020186c:	fec42703          	lw	a4,-20(s0)
    80201870:	16000793          	li	a5,352
    80201874:	02f70733          	mul	a4,a4,a5
    80201878:	00003797          	auipc	a5,0x3
    8020187c:	56878793          	addi	a5,a5,1384 # 80204de0 <g_threads>
    80201880:	00f707b3          	add	a5,a4,a5
    80201884:	fef43023          	sd	a5,-32(s0)
    80201888:	fe043783          	ld	a5,-32(s0)
    8020188c:	02078793          	addi	a5,a5,32
    80201890:	00078513          	mv	a0,a5
    80201894:	97dfe0ef          	jal	80200210 <arch_first_switch>
    80201898:	10500073          	wfi
    8020189c:	ffdff06f          	j	80201898 <threads_exec+0xa0>

00000000802018a0 <threads_tick>:
    802018a0:	fe010113          	addi	sp,sp,-32
    802018a4:	00113c23          	sd	ra,24(sp)
    802018a8:	00813823          	sd	s0,16(sp)
    802018ac:	02010413          	addi	s0,sp,32
    802018b0:	0000e797          	auipc	a5,0xe
    802018b4:	2f878793          	addi	a5,a5,760 # 8020fba8 <g_ticks>
    802018b8:	0007b783          	ld	a5,0(a5)
    802018bc:	00178713          	addi	a4,a5,1
    802018c0:	0000e797          	auipc	a5,0xe
    802018c4:	2e878793          	addi	a5,a5,744 # 8020fba8 <g_ticks>
    802018c8:	00e7b023          	sd	a4,0(a5)
    802018cc:	fe042623          	sw	zero,-20(s0)
    802018d0:	0680006f          	j	80201938 <threads_tick+0x98>
    802018d4:	fec42703          	lw	a4,-20(s0)
    802018d8:	16000793          	li	a5,352
    802018dc:	02f70733          	mul	a4,a4,a5
    802018e0:	00003797          	auipc	a5,0x3
    802018e4:	50078793          	addi	a5,a5,1280 # 80204de0 <g_threads>
    802018e8:	00f707b3          	add	a5,a4,a5
    802018ec:	fef43023          	sd	a5,-32(s0)
    802018f0:	fe043783          	ld	a5,-32(s0)
    802018f4:	0047a703          	lw	a4,4(a5)
    802018f8:	00300793          	li	a5,3
    802018fc:	02f71863          	bne	a4,a5,8020192c <threads_tick+0x8c>
    80201900:	fe043783          	ld	a5,-32(s0)
    80201904:	0087b703          	ld	a4,8(a5)
    80201908:	0000e797          	auipc	a5,0xe
    8020190c:	2a078793          	addi	a5,a5,672 # 8020fba8 <g_ticks>
    80201910:	0007b783          	ld	a5,0(a5)
    80201914:	00e7ec63          	bltu	a5,a4,8020192c <threads_tick+0x8c>
    80201918:	fe043783          	ld	a5,-32(s0)
    8020191c:	0007b423          	sd	zero,8(a5)
    80201920:	fe043783          	ld	a5,-32(s0)
    80201924:	00100713          	li	a4,1
    80201928:	00e7a223          	sw	a4,4(a5)
    8020192c:	fec42783          	lw	a5,-20(s0)
    80201930:	0017879b          	addiw	a5,a5,1
    80201934:	fef42623          	sw	a5,-20(s0)
    80201938:	fec42783          	lw	a5,-20(s0)
    8020193c:	0007871b          	sext.w	a4,a5
    80201940:	00900793          	li	a5,9
    80201944:	f8e7d8e3          	bge	a5,a4,802018d4 <threads_tick+0x34>
    80201948:	00000013          	nop
    8020194c:	00000013          	nop
    80201950:	01813083          	ld	ra,24(sp)
    80201954:	01013403          	ld	s0,16(sp)
    80201958:	02010113          	addi	sp,sp,32
    8020195c:	00008067          	ret

0000000080201960 <schedule>:
    80201960:	fc010113          	addi	sp,sp,-64
    80201964:	02113c23          	sd	ra,56(sp)
    80201968:	02813823          	sd	s0,48(sp)
    8020196c:	04010413          	addi	s0,sp,64
    80201970:	fca43423          	sd	a0,-56(s0)
    80201974:	0000e797          	auipc	a5,0xe
    80201978:	22c78793          	addi	a5,a5,556 # 8020fba0 <g_current_tid>
    8020197c:	0007a703          	lw	a4,0(a5)
    80201980:	16000793          	li	a5,352
    80201984:	02f70733          	mul	a4,a4,a5
    80201988:	00003797          	auipc	a5,0x3
    8020198c:	45878793          	addi	a5,a5,1112 # 80204de0 <g_threads>
    80201990:	00f707b3          	add	a5,a4,a5
    80201994:	fef43023          	sd	a5,-32(s0)
    80201998:	fe043783          	ld	a5,-32(s0)
    8020199c:	fc843703          	ld	a4,-56(s0)
    802019a0:	02078793          	addi	a5,a5,32
    802019a4:	00070693          	mv	a3,a4
    802019a8:	12000713          	li	a4,288
    802019ac:	00070613          	mv	a2,a4
    802019b0:	00068593          	mv	a1,a3
    802019b4:	00078513          	mv	a0,a5
    802019b8:	d20ff0ef          	jal	80200ed8 <memcpy>
    802019bc:	fe043783          	ld	a5,-32(s0)
    802019c0:	0047a703          	lw	a4,4(a5)
    802019c4:	00200793          	li	a5,2
    802019c8:	00f71863          	bne	a4,a5,802019d8 <schedule+0x78>
    802019cc:	fe043783          	ld	a5,-32(s0)
    802019d0:	00100713          	li	a4,1
    802019d4:	00e7a223          	sw	a4,4(a5)
    802019d8:	fff00793          	li	a5,-1
    802019dc:	fef42623          	sw	a5,-20(s0)
    802019e0:	0000e797          	auipc	a5,0xe
    802019e4:	1c078793          	addi	a5,a5,448 # 8020fba0 <g_current_tid>
    802019e8:	0007a783          	lw	a5,0(a5)
    802019ec:	fcf42e23          	sw	a5,-36(s0)
    802019f0:	00100793          	li	a5,1
    802019f4:	fef42423          	sw	a5,-24(s0)
    802019f8:	0980006f          	j	80201a90 <schedule+0x130>
    802019fc:	fdc42783          	lw	a5,-36(s0)
    80201a00:	00078713          	mv	a4,a5
    80201a04:	fe842783          	lw	a5,-24(s0)
    80201a08:	00f707bb          	addw	a5,a4,a5
    80201a0c:	0007879b          	sext.w	a5,a5
    80201a10:	00078713          	mv	a4,a5
    80201a14:	0007069b          	sext.w	a3,a4
    80201a18:	666667b7          	lui	a5,0x66666
    80201a1c:	66778793          	addi	a5,a5,1639 # 66666667 <STACK_SIZE+0x66665667>
    80201a20:	02f687b3          	mul	a5,a3,a5
    80201a24:	0207d793          	srli	a5,a5,0x20
    80201a28:	4027d79b          	sraiw	a5,a5,0x2
    80201a2c:	00078693          	mv	a3,a5
    80201a30:	41f7579b          	sraiw	a5,a4,0x1f
    80201a34:	40f687bb          	subw	a5,a3,a5
    80201a38:	00078693          	mv	a3,a5
    80201a3c:	00068793          	mv	a5,a3
    80201a40:	0027979b          	slliw	a5,a5,0x2
    80201a44:	00d787bb          	addw	a5,a5,a3
    80201a48:	0017979b          	slliw	a5,a5,0x1
    80201a4c:	40f707bb          	subw	a5,a4,a5
    80201a50:	fcf42c23          	sw	a5,-40(s0)
    80201a54:	00003717          	auipc	a4,0x3
    80201a58:	38c70713          	addi	a4,a4,908 # 80204de0 <g_threads>
    80201a5c:	fd842683          	lw	a3,-40(s0)
    80201a60:	16000793          	li	a5,352
    80201a64:	02f687b3          	mul	a5,a3,a5
    80201a68:	00f707b3          	add	a5,a4,a5
    80201a6c:	0047a703          	lw	a4,4(a5)
    80201a70:	00100793          	li	a5,1
    80201a74:	00f71863          	bne	a4,a5,80201a84 <schedule+0x124>
    80201a78:	fd842783          	lw	a5,-40(s0)
    80201a7c:	fef42623          	sw	a5,-20(s0)
    80201a80:	0200006f          	j	80201aa0 <schedule+0x140>
    80201a84:	fe842783          	lw	a5,-24(s0)
    80201a88:	0017879b          	addiw	a5,a5,1
    80201a8c:	fef42423          	sw	a5,-24(s0)
    80201a90:	fe842783          	lw	a5,-24(s0)
    80201a94:	0007871b          	sext.w	a4,a5
    80201a98:	00a00793          	li	a5,10
    80201a9c:	f6e7d0e3          	bge	a5,a4,802019fc <schedule+0x9c>
    80201aa0:	fec42783          	lw	a5,-20(s0)
    80201aa4:	0007879b          	sext.w	a5,a5
    80201aa8:	0007d463          	bgez	a5,80201ab0 <schedule+0x150>
    80201aac:	fe042623          	sw	zero,-20(s0)
    80201ab0:	0000e797          	auipc	a5,0xe
    80201ab4:	0f078793          	addi	a5,a5,240 # 8020fba0 <g_current_tid>
    80201ab8:	fec42703          	lw	a4,-20(s0)
    80201abc:	00e7a023          	sw	a4,0(a5)
    80201ac0:	fec42703          	lw	a4,-20(s0)
    80201ac4:	16000793          	li	a5,352
    80201ac8:	02f70733          	mul	a4,a4,a5
    80201acc:	00003797          	auipc	a5,0x3
    80201ad0:	31478793          	addi	a5,a5,788 # 80204de0 <g_threads>
    80201ad4:	00f707b3          	add	a5,a4,a5
    80201ad8:	fcf43823          	sd	a5,-48(s0)
    80201adc:	fd043783          	ld	a5,-48(s0)
    80201ae0:	00200713          	li	a4,2
    80201ae4:	00e7a223          	sw	a4,4(a5)
    80201ae8:	fc843703          	ld	a4,-56(s0)
    80201aec:	fd043783          	ld	a5,-48(s0)
    80201af0:	00070693          	mv	a3,a4
    80201af4:	02078793          	addi	a5,a5,32
    80201af8:	12000713          	li	a4,288
    80201afc:	00070613          	mv	a2,a4
    80201b00:	00078593          	mv	a1,a5
    80201b04:	00068513          	mv	a0,a3
    80201b08:	bd0ff0ef          	jal	80200ed8 <memcpy>
    80201b0c:	00000013          	nop
    80201b10:	03813083          	ld	ra,56(sp)
    80201b14:	03013403          	ld	s0,48(sp)
    80201b18:	04010113          	addi	sp,sp,64
    80201b1c:	00008067          	ret

0000000080201b20 <thread_sys_sleep>:
    80201b20:	fd010113          	addi	sp,sp,-48
    80201b24:	02113423          	sd	ra,40(sp)
    80201b28:	02813023          	sd	s0,32(sp)
    80201b2c:	03010413          	addi	s0,sp,48
    80201b30:	fca43c23          	sd	a0,-40(s0)
    80201b34:	fcb43823          	sd	a1,-48(s0)
    80201b38:	0000e797          	auipc	a5,0xe
    80201b3c:	06878793          	addi	a5,a5,104 # 8020fba0 <g_current_tid>
    80201b40:	0007a703          	lw	a4,0(a5)
    80201b44:	16000793          	li	a5,352
    80201b48:	02f70733          	mul	a4,a4,a5
    80201b4c:	00003797          	auipc	a5,0x3
    80201b50:	29478793          	addi	a5,a5,660 # 80204de0 <g_threads>
    80201b54:	00f707b3          	add	a5,a4,a5
    80201b58:	fef43423          	sd	a5,-24(s0)
    80201b5c:	fd043783          	ld	a5,-48(s0)
    80201b60:	00079863          	bnez	a5,80201b70 <thread_sys_sleep+0x50>
    80201b64:	fd843503          	ld	a0,-40(s0)
    80201b68:	df9ff0ef          	jal	80201960 <schedule>
    80201b6c:	0340006f          	j	80201ba0 <thread_sys_sleep+0x80>
    80201b70:	fe843783          	ld	a5,-24(s0)
    80201b74:	00300713          	li	a4,3
    80201b78:	00e7a223          	sw	a4,4(a5)
    80201b7c:	0000e797          	auipc	a5,0xe
    80201b80:	02c78793          	addi	a5,a5,44 # 8020fba8 <g_ticks>
    80201b84:	0007b703          	ld	a4,0(a5)
    80201b88:	fd043783          	ld	a5,-48(s0)
    80201b8c:	00f70733          	add	a4,a4,a5
    80201b90:	fe843783          	ld	a5,-24(s0)
    80201b94:	00e7b423          	sd	a4,8(a5)
    80201b98:	fd843503          	ld	a0,-40(s0)
    80201b9c:	dc5ff0ef          	jal	80201960 <schedule>
    80201ba0:	02813083          	ld	ra,40(sp)
    80201ba4:	02013403          	ld	s0,32(sp)
    80201ba8:	03010113          	addi	sp,sp,48
    80201bac:	00008067          	ret

0000000080201bb0 <thread_sys_create>:
    80201bb0:	fc010113          	addi	sp,sp,-64
    80201bb4:	02113c23          	sd	ra,56(sp)
    80201bb8:	02813823          	sd	s0,48(sp)
    80201bbc:	04010413          	addi	s0,sp,64
    80201bc0:	fca43c23          	sd	a0,-40(s0)
    80201bc4:	fcb43823          	sd	a1,-48(s0)
    80201bc8:	fcc43423          	sd	a2,-56(s0)
    80201bcc:	fcd43023          	sd	a3,-64(s0)
    80201bd0:	fc043603          	ld	a2,-64(s0)
    80201bd4:	fc843583          	ld	a1,-56(s0)
    80201bd8:	fd043503          	ld	a0,-48(s0)
    80201bdc:	b41ff0ef          	jal	8020171c <thread_create_user>
    80201be0:	00050793          	mv	a5,a0
    80201be4:	fef42623          	sw	a5,-20(s0)
    80201be8:	fec42703          	lw	a4,-20(s0)
    80201bec:	fd843783          	ld	a5,-40(s0)
    80201bf0:	04e7b423          	sd	a4,72(a5)
    80201bf4:	00000013          	nop
    80201bf8:	03813083          	ld	ra,56(sp)
    80201bfc:	03013403          	ld	s0,48(sp)
    80201c00:	04010113          	addi	sp,sp,64
    80201c04:	00008067          	ret

0000000080201c08 <thread_sys_exit>:
    80201c08:	fc010113          	addi	sp,sp,-64
    80201c0c:	02113c23          	sd	ra,56(sp)
    80201c10:	02813823          	sd	s0,48(sp)
    80201c14:	04010413          	addi	s0,sp,64
    80201c18:	fca43423          	sd	a0,-56(s0)
    80201c1c:	00058793          	mv	a5,a1
    80201c20:	fcf42223          	sw	a5,-60(s0)
    80201c24:	0000e797          	auipc	a5,0xe
    80201c28:	f7c78793          	addi	a5,a5,-132 # 8020fba0 <g_current_tid>
    80201c2c:	0007a703          	lw	a4,0(a5)
    80201c30:	16000793          	li	a5,352
    80201c34:	02f70733          	mul	a4,a4,a5
    80201c38:	00003797          	auipc	a5,0x3
    80201c3c:	1a878793          	addi	a5,a5,424 # 80204de0 <g_threads>
    80201c40:	00f707b3          	add	a5,a4,a5
    80201c44:	fef43423          	sd	a5,-24(s0)
    80201c48:	fe843783          	ld	a5,-24(s0)
    80201c4c:	fc843703          	ld	a4,-56(s0)
    80201c50:	02078793          	addi	a5,a5,32
    80201c54:	00070693          	mv	a3,a4
    80201c58:	12000713          	li	a4,288
    80201c5c:	00070613          	mv	a2,a4
    80201c60:	00068593          	mv	a1,a3
    80201c64:	00078513          	mv	a0,a5
    80201c68:	a70ff0ef          	jal	80200ed8 <memcpy>
    80201c6c:	fe843783          	ld	a5,-24(s0)
    80201c70:	fc442703          	lw	a4,-60(s0)
    80201c74:	14e7a423          	sw	a4,328(a5)
    80201c78:	fe843783          	ld	a5,-24(s0)
    80201c7c:	00500713          	li	a4,5
    80201c80:	00e7a223          	sw	a4,4(a5)
    80201c84:	fe843783          	ld	a5,-24(s0)
    80201c88:	14c7a783          	lw	a5,332(a5)
    80201c8c:	0607c863          	bltz	a5,80201cfc <thread_sys_exit+0xf4>
    80201c90:	fe843783          	ld	a5,-24(s0)
    80201c94:	14c7a703          	lw	a4,332(a5)
    80201c98:	16000793          	li	a5,352
    80201c9c:	02f70733          	mul	a4,a4,a5
    80201ca0:	00003797          	auipc	a5,0x3
    80201ca4:	14078793          	addi	a5,a5,320 # 80204de0 <g_threads>
    80201ca8:	00f707b3          	add	a5,a4,a5
    80201cac:	fef43023          	sd	a5,-32(s0)
    80201cb0:	fe043783          	ld	a5,-32(s0)
    80201cb4:	1587b783          	ld	a5,344(a5)
    80201cb8:	00078e63          	beqz	a5,80201cd4 <thread_sys_exit+0xcc>
    80201cbc:	fe043783          	ld	a5,-32(s0)
    80201cc0:	1587b783          	ld	a5,344(a5)
    80201cc4:	fcf43c23          	sd	a5,-40(s0)
    80201cc8:	fd843783          	ld	a5,-40(s0)
    80201ccc:	fc442703          	lw	a4,-60(s0)
    80201cd0:	00e7a023          	sw	a4,0(a5)
    80201cd4:	fe043783          	ld	a5,-32(s0)
    80201cd8:	0607b423          	sd	zero,104(a5)
    80201cdc:	fe043783          	ld	a5,-32(s0)
    80201ce0:	fff00713          	li	a4,-1
    80201ce4:	14e7a823          	sw	a4,336(a5)
    80201ce8:	fe043783          	ld	a5,-32(s0)
    80201cec:	1407bc23          	sd	zero,344(a5)
    80201cf0:	fe043783          	ld	a5,-32(s0)
    80201cf4:	00100713          	li	a4,1
    80201cf8:	00e7a223          	sw	a4,4(a5)
    80201cfc:	fe843783          	ld	a5,-24(s0)
    80201d00:	fff00713          	li	a4,-1
    80201d04:	14e7a623          	sw	a4,332(a5)
    80201d08:	fc843503          	ld	a0,-56(s0)
    80201d0c:	c55ff0ef          	jal	80201960 <schedule>
    80201d10:	00000013          	nop
    80201d14:	03813083          	ld	ra,56(sp)
    80201d18:	03013403          	ld	s0,48(sp)
    80201d1c:	04010113          	addi	sp,sp,64
    80201d20:	00008067          	ret

0000000080201d24 <thread_sys_join>:
    80201d24:	fb010113          	addi	sp,sp,-80
    80201d28:	04113423          	sd	ra,72(sp)
    80201d2c:	04813023          	sd	s0,64(sp)
    80201d30:	05010413          	addi	s0,sp,80
    80201d34:	fca43423          	sd	a0,-56(s0)
    80201d38:	00058793          	mv	a5,a1
    80201d3c:	fac43c23          	sd	a2,-72(s0)
    80201d40:	fcf42223          	sw	a5,-60(s0)
    80201d44:	0000e797          	auipc	a5,0xe
    80201d48:	e5c78793          	addi	a5,a5,-420 # 8020fba0 <g_current_tid>
    80201d4c:	0007a703          	lw	a4,0(a5)
    80201d50:	16000793          	li	a5,352
    80201d54:	02f70733          	mul	a4,a4,a5
    80201d58:	00003797          	auipc	a5,0x3
    80201d5c:	08878793          	addi	a5,a5,136 # 80204de0 <g_threads>
    80201d60:	00f707b3          	add	a5,a4,a5
    80201d64:	fef43423          	sd	a5,-24(s0)
    80201d68:	fc442783          	lw	a5,-60(s0)
    80201d6c:	0007879b          	sext.w	a5,a5
    80201d70:	00f05a63          	blez	a5,80201d84 <thread_sys_join+0x60>
    80201d74:	fc442783          	lw	a5,-60(s0)
    80201d78:	0007871b          	sext.w	a4,a5
    80201d7c:	00900793          	li	a5,9
    80201d80:	00e7da63          	bge	a5,a4,80201d94 <thread_sys_join+0x70>
    80201d84:	fc843783          	ld	a5,-56(s0)
    80201d88:	fff00713          	li	a4,-1
    80201d8c:	04e7b423          	sd	a4,72(a5)
    80201d90:	1200006f          	j	80201eb0 <thread_sys_join+0x18c>
    80201d94:	0000e797          	auipc	a5,0xe
    80201d98:	e0c78793          	addi	a5,a5,-500 # 8020fba0 <g_current_tid>
    80201d9c:	0007a783          	lw	a5,0(a5)
    80201da0:	fc442703          	lw	a4,-60(s0)
    80201da4:	0007071b          	sext.w	a4,a4
    80201da8:	00f71a63          	bne	a4,a5,80201dbc <thread_sys_join+0x98>
    80201dac:	fc843783          	ld	a5,-56(s0)
    80201db0:	ffe00713          	li	a4,-2
    80201db4:	04e7b423          	sd	a4,72(a5)
    80201db8:	0f80006f          	j	80201eb0 <thread_sys_join+0x18c>
    80201dbc:	fc442703          	lw	a4,-60(s0)
    80201dc0:	16000793          	li	a5,352
    80201dc4:	02f70733          	mul	a4,a4,a5
    80201dc8:	00003797          	auipc	a5,0x3
    80201dcc:	01878793          	addi	a5,a5,24 # 80204de0 <g_threads>
    80201dd0:	00f707b3          	add	a5,a4,a5
    80201dd4:	fef43023          	sd	a5,-32(s0)
    80201dd8:	fe043783          	ld	a5,-32(s0)
    80201ddc:	0047a783          	lw	a5,4(a5)
    80201de0:	00079a63          	bnez	a5,80201df4 <thread_sys_join+0xd0>
    80201de4:	fc843783          	ld	a5,-56(s0)
    80201de8:	ffd00713          	li	a4,-3
    80201dec:	04e7b423          	sd	a4,72(a5)
    80201df0:	0c00006f          	j	80201eb0 <thread_sys_join+0x18c>
    80201df4:	fe043783          	ld	a5,-32(s0)
    80201df8:	0047a703          	lw	a4,4(a5)
    80201dfc:	00500793          	li	a5,5
    80201e00:	02f71e63          	bne	a4,a5,80201e3c <thread_sys_join+0x118>
    80201e04:	fb843783          	ld	a5,-72(s0)
    80201e08:	00078e63          	beqz	a5,80201e24 <thread_sys_join+0x100>
    80201e0c:	fb843783          	ld	a5,-72(s0)
    80201e10:	fcf43c23          	sd	a5,-40(s0)
    80201e14:	fe043783          	ld	a5,-32(s0)
    80201e18:	1487a703          	lw	a4,328(a5)
    80201e1c:	fd843783          	ld	a5,-40(s0)
    80201e20:	00e7a023          	sw	a4,0(a5)
    80201e24:	fc442783          	lw	a5,-60(s0)
    80201e28:	00078513          	mv	a0,a5
    80201e2c:	cfcff0ef          	jal	80201328 <recycle_thread>
    80201e30:	fc843783          	ld	a5,-56(s0)
    80201e34:	0407b423          	sd	zero,72(a5)
    80201e38:	0780006f          	j	80201eb0 <thread_sys_join+0x18c>
    80201e3c:	fe043783          	ld	a5,-32(s0)
    80201e40:	14c7a783          	lw	a5,332(a5)
    80201e44:	0207c663          	bltz	a5,80201e70 <thread_sys_join+0x14c>
    80201e48:	fe043783          	ld	a5,-32(s0)
    80201e4c:	14c7a703          	lw	a4,332(a5)
    80201e50:	0000e797          	auipc	a5,0xe
    80201e54:	d5078793          	addi	a5,a5,-688 # 8020fba0 <g_current_tid>
    80201e58:	0007a783          	lw	a5,0(a5)
    80201e5c:	00f70a63          	beq	a4,a5,80201e70 <thread_sys_join+0x14c>
    80201e60:	fc843783          	ld	a5,-56(s0)
    80201e64:	ffc00713          	li	a4,-4
    80201e68:	04e7b423          	sd	a4,72(a5)
    80201e6c:	0440006f          	j	80201eb0 <thread_sys_join+0x18c>
    80201e70:	fe843783          	ld	a5,-24(s0)
    80201e74:	00400713          	li	a4,4
    80201e78:	00e7a223          	sw	a4,4(a5)
    80201e7c:	fe843783          	ld	a5,-24(s0)
    80201e80:	fc442703          	lw	a4,-60(s0)
    80201e84:	14e7a823          	sw	a4,336(a5)
    80201e88:	fe843783          	ld	a5,-24(s0)
    80201e8c:	fb843703          	ld	a4,-72(s0)
    80201e90:	14e7bc23          	sd	a4,344(a5)
    80201e94:	0000e797          	auipc	a5,0xe
    80201e98:	d0c78793          	addi	a5,a5,-756 # 8020fba0 <g_current_tid>
    80201e9c:	0007a703          	lw	a4,0(a5)
    80201ea0:	fe043783          	ld	a5,-32(s0)
    80201ea4:	14e7a623          	sw	a4,332(a5)
    80201ea8:	fc843503          	ld	a0,-56(s0)
    80201eac:	ab5ff0ef          	jal	80201960 <schedule>
    80201eb0:	04813083          	ld	ra,72(sp)
    80201eb4:	04013403          	ld	s0,64(sp)
    80201eb8:	05010113          	addi	sp,sp,80
    80201ebc:	00008067          	ret

0000000080201ec0 <thread_current>:
    80201ec0:	ff010113          	addi	sp,sp,-16
    80201ec4:	00113423          	sd	ra,8(sp)
    80201ec8:	00813023          	sd	s0,0(sp)
    80201ecc:	01010413          	addi	s0,sp,16
    80201ed0:	0000e797          	auipc	a5,0xe
    80201ed4:	cd078793          	addi	a5,a5,-816 # 8020fba0 <g_current_tid>
    80201ed8:	0007a783          	lw	a5,0(a5)
    80201edc:	00078513          	mv	a0,a5
    80201ee0:	00813083          	ld	ra,8(sp)
    80201ee4:	00013403          	ld	s0,0(sp)
    80201ee8:	01010113          	addi	sp,sp,16
    80201eec:	00008067          	ret

0000000080201ef0 <thread_name>:
    80201ef0:	fd010113          	addi	sp,sp,-48
    80201ef4:	02113423          	sd	ra,40(sp)
    80201ef8:	02813023          	sd	s0,32(sp)
    80201efc:	03010413          	addi	s0,sp,48
    80201f00:	00050793          	mv	a5,a0
    80201f04:	fcf42e23          	sw	a5,-36(s0)
    80201f08:	fdc42783          	lw	a5,-36(s0)
    80201f0c:	00078513          	mv	a0,a5
    80201f10:	998ff0ef          	jal	802010a8 <thread_by_tid>
    80201f14:	fea43423          	sd	a0,-24(s0)
    80201f18:	fe843783          	ld	a5,-24(s0)
    80201f1c:	00079863          	bnez	a5,80201f2c <thread_name+0x3c>
    80201f20:	00002797          	auipc	a5,0x2
    80201f24:	c6078793          	addi	a5,a5,-928 # 80203b80 <log_init_baremetal+0x230>
    80201f28:	00c0006f          	j	80201f34 <thread_name+0x44>
    80201f2c:	fe843783          	ld	a5,-24(s0)
    80201f30:	0107b783          	ld	a5,16(a5)
    80201f34:	00078513          	mv	a0,a5
    80201f38:	02813083          	ld	ra,40(sp)
    80201f3c:	02013403          	ld	s0,32(sp)
    80201f40:	03010113          	addi	sp,sp,48
    80201f44:	00008067          	ret

0000000080201f48 <print_thread_prefix>:
    80201f48:	fe010113          	addi	sp,sp,-32
    80201f4c:	00113c23          	sd	ra,24(sp)
    80201f50:	00813823          	sd	s0,16(sp)
    80201f54:	02010413          	addi	s0,sp,32
    80201f58:	f69ff0ef          	jal	80201ec0 <thread_current>
    80201f5c:	00050793          	mv	a5,a0
    80201f60:	fef42623          	sw	a5,-20(s0)
    80201f64:	fec42783          	lw	a5,-20(s0)
    80201f68:	00078513          	mv	a0,a5
    80201f6c:	f85ff0ef          	jal	80201ef0 <thread_name>
    80201f70:	fea43023          	sd	a0,-32(s0)
    80201f74:	05b00513          	li	a0,91
    80201f78:	d64fe0ef          	jal	802004dc <platform_putc>
    80201f7c:	fec42783          	lw	a5,-20(s0)
    80201f80:	00078513          	mv	a0,a5
    80201f84:	bfcfe0ef          	jal	80200380 <platform_put_hex64>
    80201f88:	03a00513          	li	a0,58
    80201f8c:	d50fe0ef          	jal	802004dc <platform_putc>
    80201f90:	fe043503          	ld	a0,-32(s0)
    80201f94:	d80fe0ef          	jal	80200514 <platform_puts>
    80201f98:	00002517          	auipc	a0,0x2
    80201f9c:	bf050513          	addi	a0,a0,-1040 # 80203b88 <log_init_baremetal+0x238>
    80201fa0:	d74fe0ef          	jal	80200514 <platform_puts>
    80201fa4:	00000013          	nop
    80201fa8:	01813083          	ld	ra,24(sp)
    80201fac:	01013403          	ld	s0,16(sp)
    80201fb0:	02010113          	addi	sp,sp,32
    80201fb4:	00008067          	ret

0000000080201fb8 <sys_write>:
    80201fb8:	fd010113          	addi	sp,sp,-48
    80201fbc:	02113423          	sd	ra,40(sp)
    80201fc0:	02813023          	sd	s0,32(sp)
    80201fc4:	03010413          	addi	s0,sp,48
    80201fc8:	00050793          	mv	a5,a0
    80201fcc:	feb43023          	sd	a1,-32(s0)
    80201fd0:	fcc43c23          	sd	a2,-40(s0)
    80201fd4:	fef42623          	sw	a5,-20(s0)
    80201fd8:	00500513          	li	a0,5
    80201fdc:	fec42783          	lw	a5,-20(s0)
    80201fe0:	00078593          	mv	a1,a5
    80201fe4:	fe043783          	ld	a5,-32(s0)
    80201fe8:	00078613          	mv	a2,a5
    80201fec:	fd843683          	ld	a3,-40(s0)
    80201ff0:	00000073          	ecall
    80201ff4:	00050793          	mv	a5,a0
    80201ff8:	0007879b          	sext.w	a5,a5
    80201ffc:	00078513          	mv	a0,a5
    80202000:	02813083          	ld	ra,40(sp)
    80202004:	02013403          	ld	s0,32(sp)
    80202008:	03010113          	addi	sp,sp,48
    8020200c:	00008067          	ret

0000000080202010 <sys_read>:
    80202010:	fd010113          	addi	sp,sp,-48
    80202014:	02113423          	sd	ra,40(sp)
    80202018:	02813023          	sd	s0,32(sp)
    8020201c:	03010413          	addi	s0,sp,48
    80202020:	00050793          	mv	a5,a0
    80202024:	feb43023          	sd	a1,-32(s0)
    80202028:	fcc43c23          	sd	a2,-40(s0)
    8020202c:	fef42623          	sw	a5,-20(s0)
    80202030:	00600513          	li	a0,6
    80202034:	fec42783          	lw	a5,-20(s0)
    80202038:	00078593          	mv	a1,a5
    8020203c:	fe043783          	ld	a5,-32(s0)
    80202040:	00078613          	mv	a2,a5
    80202044:	fd843683          	ld	a3,-40(s0)
    80202048:	00000073          	ecall
    8020204c:	00050793          	mv	a5,a0
    80202050:	0007879b          	sext.w	a5,a5
    80202054:	00078513          	mv	a0,a5
    80202058:	02813083          	ld	ra,40(sp)
    8020205c:	02013403          	ld	s0,32(sp)
    80202060:	03010113          	addi	sp,sp,48
    80202064:	00008067          	ret

0000000080202068 <thread_sleep>:
    80202068:	fe010113          	addi	sp,sp,-32
    8020206c:	00113c23          	sd	ra,24(sp)
    80202070:	00813823          	sd	s0,16(sp)
    80202074:	02010413          	addi	s0,sp,32
    80202078:	fea43423          	sd	a0,-24(s0)
    8020207c:	00100513          	li	a0,1
    80202080:	fe843583          	ld	a1,-24(s0)
    80202084:	00000073          	ecall
    80202088:	00000013          	nop
    8020208c:	01813083          	ld	ra,24(sp)
    80202090:	01013403          	ld	s0,16(sp)
    80202094:	02010113          	addi	sp,sp,32
    80202098:	00008067          	ret

000000008020209c <thread_exit>:
    8020209c:	fe010113          	addi	sp,sp,-32
    802020a0:	00113c23          	sd	ra,24(sp)
    802020a4:	00813823          	sd	s0,16(sp)
    802020a8:	02010413          	addi	s0,sp,32
    802020ac:	00050793          	mv	a5,a0
    802020b0:	fef42623          	sw	a5,-20(s0)
    802020b4:	00200513          	li	a0,2
    802020b8:	fec42783          	lw	a5,-20(s0)
    802020bc:	00078593          	mv	a1,a5
    802020c0:	00000073          	ecall
    802020c4:	00000013          	nop
    802020c8:	ffdff06f          	j	802020c4 <thread_exit+0x28>

00000000802020cc <thread_join>:
    802020cc:	fe010113          	addi	sp,sp,-32
    802020d0:	00113c23          	sd	ra,24(sp)
    802020d4:	00813823          	sd	s0,16(sp)
    802020d8:	02010413          	addi	s0,sp,32
    802020dc:	00050793          	mv	a5,a0
    802020e0:	feb43023          	sd	a1,-32(s0)
    802020e4:	fef42623          	sw	a5,-20(s0)
    802020e8:	00300513          	li	a0,3
    802020ec:	fec42783          	lw	a5,-20(s0)
    802020f0:	00078593          	mv	a1,a5
    802020f4:	fe043783          	ld	a5,-32(s0)
    802020f8:	00078613          	mv	a2,a5
    802020fc:	00000073          	ecall
    80202100:	00050793          	mv	a5,a0
    80202104:	0007879b          	sext.w	a5,a5
    80202108:	00078513          	mv	a0,a5
    8020210c:	01813083          	ld	ra,24(sp)
    80202110:	01013403          	ld	s0,16(sp)
    80202114:	02010113          	addi	sp,sp,32
    80202118:	00008067          	ret

000000008020211c <thread_create>:
    8020211c:	fd010113          	addi	sp,sp,-48
    80202120:	02113423          	sd	ra,40(sp)
    80202124:	02813023          	sd	s0,32(sp)
    80202128:	03010413          	addi	s0,sp,48
    8020212c:	fea43423          	sd	a0,-24(s0)
    80202130:	feb43023          	sd	a1,-32(s0)
    80202134:	fcc43c23          	sd	a2,-40(s0)
    80202138:	00400513          	li	a0,4
    8020213c:	fe843783          	ld	a5,-24(s0)
    80202140:	00078593          	mv	a1,a5
    80202144:	fe043783          	ld	a5,-32(s0)
    80202148:	00078613          	mv	a2,a5
    8020214c:	fd843783          	ld	a5,-40(s0)
    80202150:	00078693          	mv	a3,a5
    80202154:	00000073          	ecall
    80202158:	00050793          	mv	a5,a0
    8020215c:	0007879b          	sext.w	a5,a5
    80202160:	00078513          	mv	a0,a5
    80202164:	02813083          	ld	ra,40(sp)
    80202168:	02013403          	ld	s0,32(sp)
    8020216c:	03010113          	addi	sp,sp,48
    80202170:	00008067          	ret

0000000080202174 <worker_thread>:
    80202174:	fd010113          	addi	sp,sp,-48
    80202178:	02113423          	sd	ra,40(sp)
    8020217c:	02813023          	sd	s0,32(sp)
    80202180:	03010413          	addi	s0,sp,48
    80202184:	fca43c23          	sd	a0,-40(s0)
    80202188:	fd843783          	ld	a5,-40(s0)
    8020218c:	fef42423          	sw	a5,-24(s0)
    80202190:	db9ff0ef          	jal	80201f48 <print_thread_prefix>
    80202194:	00002517          	auipc	a0,0x2
    80202198:	a2450513          	addi	a0,a0,-1500 # 80203bb8 <__func__.0+0x10>
    8020219c:	b78fe0ef          	jal	80200514 <platform_puts>
    802021a0:	fe042623          	sw	zero,-20(s0)
    802021a4:	0280006f          	j	802021cc <worker_thread+0x58>
    802021a8:	da1ff0ef          	jal	80201f48 <print_thread_prefix>
    802021ac:	00002517          	auipc	a0,0x2
    802021b0:	a3c50513          	addi	a0,a0,-1476 # 80203be8 <__func__.0+0x40>
    802021b4:	b60fe0ef          	jal	80200514 <platform_puts>
    802021b8:	00500513          	li	a0,5
    802021bc:	eadff0ef          	jal	80202068 <thread_sleep>
    802021c0:	fec42783          	lw	a5,-20(s0)
    802021c4:	0017879b          	addiw	a5,a5,1
    802021c8:	fef42623          	sw	a5,-20(s0)
    802021cc:	fec42783          	lw	a5,-20(s0)
    802021d0:	00078713          	mv	a4,a5
    802021d4:	fe842783          	lw	a5,-24(s0)
    802021d8:	0007071b          	sext.w	a4,a4
    802021dc:	0007879b          	sext.w	a5,a5
    802021e0:	fcf744e3          	blt	a4,a5,802021a8 <worker_thread+0x34>
    802021e4:	d65ff0ef          	jal	80201f48 <print_thread_prefix>
    802021e8:	00002517          	auipc	a0,0x2
    802021ec:	a1850513          	addi	a0,a0,-1512 # 80203c00 <__func__.0+0x58>
    802021f0:	b24fe0ef          	jal	80200514 <platform_puts>
    802021f4:	fe842783          	lw	a5,-24(s0)
    802021f8:	00078513          	mv	a0,a5
    802021fc:	ea1ff0ef          	jal	8020209c <thread_exit>
    80202200:	00000013          	nop
    80202204:	02813083          	ld	ra,40(sp)
    80202208:	02013403          	ld	s0,32(sp)
    8020220c:	03010113          	addi	sp,sp,48
    80202210:	00008067          	ret

0000000080202214 <user_main>:
    80202214:	fd010113          	addi	sp,sp,-48
    80202218:	02113423          	sd	ra,40(sp)
    8020221c:	02813023          	sd	s0,32(sp)
    80202220:	03010413          	addi	s0,sp,48
    80202224:	fca43c23          	sd	a0,-40(s0)
    80202228:	d21ff0ef          	jal	80201f48 <print_thread_prefix>
    8020222c:	00002517          	auipc	a0,0x2
    80202230:	a0450513          	addi	a0,a0,-1532 # 80203c30 <__func__.0+0x88>
    80202234:	ae0fe0ef          	jal	80200514 <platform_puts>
    80202238:	00002617          	auipc	a2,0x2
    8020223c:	a1860613          	addi	a2,a2,-1512 # 80203c50 <__func__.0+0xa8>
    80202240:	00300593          	li	a1,3
    80202244:	00000517          	auipc	a0,0x0
    80202248:	f3050513          	addi	a0,a0,-208 # 80202174 <worker_thread>
    8020224c:	ed1ff0ef          	jal	8020211c <thread_create>
    80202250:	00050793          	mv	a5,a0
    80202254:	fef42623          	sw	a5,-20(s0)
    80202258:	fec42783          	lw	a5,-20(s0)
    8020225c:	0007879b          	sext.w	a5,a5
    80202260:	0007d863          	bgez	a5,80202270 <user_main+0x5c>
    80202264:	00002517          	auipc	a0,0x2
    80202268:	9f450513          	addi	a0,a0,-1548 # 80203c58 <__func__.0+0xb0>
    8020226c:	aa8fe0ef          	jal	80200514 <platform_puts>
    80202270:	fec42783          	lw	a5,-20(s0)
    80202274:	0007879b          	sext.w	a5,a5
    80202278:	0607ca63          	bltz	a5,802022ec <user_main+0xd8>
    8020227c:	fe042223          	sw	zero,-28(s0)
    80202280:	cc9ff0ef          	jal	80201f48 <print_thread_prefix>
    80202284:	00002517          	auipc	a0,0x2
    80202288:	9f450513          	addi	a0,a0,-1548 # 80203c78 <__func__.0+0xd0>
    8020228c:	a88fe0ef          	jal	80200514 <platform_puts>
    80202290:	fe440713          	addi	a4,s0,-28
    80202294:	fec42783          	lw	a5,-20(s0)
    80202298:	00070593          	mv	a1,a4
    8020229c:	00078513          	mv	a0,a5
    802022a0:	e2dff0ef          	jal	802020cc <thread_join>
    802022a4:	00050793          	mv	a5,a0
    802022a8:	fef42423          	sw	a5,-24(s0)
    802022ac:	c9dff0ef          	jal	80201f48 <print_thread_prefix>
    802022b0:	00002517          	auipc	a0,0x2
    802022b4:	9e850513          	addi	a0,a0,-1560 # 80203c98 <__func__.0+0xf0>
    802022b8:	a5cfe0ef          	jal	80200514 <platform_puts>
    802022bc:	fe842783          	lw	a5,-24(s0)
    802022c0:	00078513          	mv	a0,a5
    802022c4:	8bcfe0ef          	jal	80200380 <platform_put_hex64>
    802022c8:	00002517          	auipc	a0,0x2
    802022cc:	9f850513          	addi	a0,a0,-1544 # 80203cc0 <__func__.0+0x118>
    802022d0:	a44fe0ef          	jal	80200514 <platform_puts>
    802022d4:	fe442783          	lw	a5,-28(s0)
    802022d8:	00078513          	mv	a0,a5
    802022dc:	8a4fe0ef          	jal	80200380 <platform_put_hex64>
    802022e0:	00002517          	auipc	a0,0x2
    802022e4:	9f050513          	addi	a0,a0,-1552 # 80203cd0 <__func__.0+0x128>
    802022e8:	a2cfe0ef          	jal	80200514 <platform_puts>
    802022ec:	c5dff0ef          	jal	80201f48 <print_thread_prefix>
    802022f0:	00002517          	auipc	a0,0x2
    802022f4:	9e850513          	addi	a0,a0,-1560 # 80203cd8 <__func__.0+0x130>
    802022f8:	a1cfe0ef          	jal	80200514 <platform_puts>
    802022fc:	00a00513          	li	a0,10
    80202300:	d69ff0ef          	jal	80202068 <thread_sleep>
    80202304:	00000013          	nop
    80202308:	fe5ff06f          	j	802022ec <user_main+0xd8>

000000008020230c <log_append_char>:
    8020230c:	fd010113          	addi	sp,sp,-48
    80202310:	02113423          	sd	ra,40(sp)
    80202314:	02813023          	sd	s0,32(sp)
    80202318:	03010413          	addi	s0,sp,48
    8020231c:	fea43423          	sd	a0,-24(s0)
    80202320:	feb43023          	sd	a1,-32(s0)
    80202324:	00060793          	mv	a5,a2
    80202328:	00068713          	mv	a4,a3
    8020232c:	fcf42e23          	sw	a5,-36(s0)
    80202330:	00070793          	mv	a5,a4
    80202334:	fcf40da3          	sb	a5,-37(s0)
    80202338:	fe043783          	ld	a5,-32(s0)
    8020233c:	0007a703          	lw	a4,0(a5)
    80202340:	fdc42783          	lw	a5,-36(s0)
    80202344:	fff7879b          	addiw	a5,a5,-1
    80202348:	0007879b          	sext.w	a5,a5
    8020234c:	02f75863          	bge	a4,a5,8020237c <log_append_char+0x70>
    80202350:	fe043783          	ld	a5,-32(s0)
    80202354:	0007a783          	lw	a5,0(a5)
    80202358:	0017871b          	addiw	a4,a5,1
    8020235c:	0007069b          	sext.w	a3,a4
    80202360:	fe043703          	ld	a4,-32(s0)
    80202364:	00d72023          	sw	a3,0(a4)
    80202368:	00078713          	mv	a4,a5
    8020236c:	fe843783          	ld	a5,-24(s0)
    80202370:	00e787b3          	add	a5,a5,a4
    80202374:	fdb44703          	lbu	a4,-37(s0)
    80202378:	00e78023          	sb	a4,0(a5)
    8020237c:	00000013          	nop
    80202380:	02813083          	ld	ra,40(sp)
    80202384:	02013403          	ld	s0,32(sp)
    80202388:	03010113          	addi	sp,sp,48
    8020238c:	00008067          	ret

0000000080202390 <log_append_str>:
    80202390:	fd010113          	addi	sp,sp,-48
    80202394:	02113423          	sd	ra,40(sp)
    80202398:	02813023          	sd	s0,32(sp)
    8020239c:	03010413          	addi	s0,sp,48
    802023a0:	fea43423          	sd	a0,-24(s0)
    802023a4:	feb43023          	sd	a1,-32(s0)
    802023a8:	00060793          	mv	a5,a2
    802023ac:	fcd43823          	sd	a3,-48(s0)
    802023b0:	fcf42e23          	sw	a5,-36(s0)
    802023b4:	fd043783          	ld	a5,-48(s0)
    802023b8:	04079663          	bnez	a5,80202404 <log_append_str+0x74>
    802023bc:	00002797          	auipc	a5,0x2
    802023c0:	93478793          	addi	a5,a5,-1740 # 80203cf0 <__func__.0+0x148>
    802023c4:	fcf43823          	sd	a5,-48(s0)
    802023c8:	03c0006f          	j	80202404 <log_append_str+0x74>
    802023cc:	fd043783          	ld	a5,-48(s0)
    802023d0:	00178713          	addi	a4,a5,1
    802023d4:	fce43823          	sd	a4,-48(s0)
    802023d8:	fe043703          	ld	a4,-32(s0)
    802023dc:	00072703          	lw	a4,0(a4)
    802023e0:	0017069b          	addiw	a3,a4,1
    802023e4:	0006861b          	sext.w	a2,a3
    802023e8:	fe043683          	ld	a3,-32(s0)
    802023ec:	00c6a023          	sw	a2,0(a3)
    802023f0:	00070693          	mv	a3,a4
    802023f4:	fe843703          	ld	a4,-24(s0)
    802023f8:	00d70733          	add	a4,a4,a3
    802023fc:	0007c783          	lbu	a5,0(a5)
    80202400:	00f70023          	sb	a5,0(a4)
    80202404:	fd043783          	ld	a5,-48(s0)
    80202408:	0007c783          	lbu	a5,0(a5)
    8020240c:	00078e63          	beqz	a5,80202428 <log_append_str+0x98>
    80202410:	fe043783          	ld	a5,-32(s0)
    80202414:	0007a703          	lw	a4,0(a5)
    80202418:	fdc42783          	lw	a5,-36(s0)
    8020241c:	fff7879b          	addiw	a5,a5,-1
    80202420:	0007879b          	sext.w	a5,a5
    80202424:	faf744e3          	blt	a4,a5,802023cc <log_append_str+0x3c>
    80202428:	00000013          	nop
    8020242c:	02813083          	ld	ra,40(sp)
    80202430:	02013403          	ld	s0,32(sp)
    80202434:	03010113          	addi	sp,sp,48
    80202438:	00008067          	ret

000000008020243c <log_append_uint>:
    8020243c:	f8010113          	addi	sp,sp,-128
    80202440:	06113c23          	sd	ra,120(sp)
    80202444:	06813823          	sd	s0,112(sp)
    80202448:	08010413          	addi	s0,sp,128
    8020244c:	faa43423          	sd	a0,-88(s0)
    80202450:	fab43023          	sd	a1,-96(s0)
    80202454:	00060513          	mv	a0,a2
    80202458:	f8d43823          	sd	a3,-112(s0)
    8020245c:	00070593          	mv	a1,a4
    80202460:	00078613          	mv	a2,a5
    80202464:	00080693          	mv	a3,a6
    80202468:	00088713          	mv	a4,a7
    8020246c:	00050793          	mv	a5,a0
    80202470:	f8f42e23          	sw	a5,-100(s0)
    80202474:	00058793          	mv	a5,a1
    80202478:	f8f42c23          	sw	a5,-104(s0)
    8020247c:	00060793          	mv	a5,a2
    80202480:	f8f407a3          	sb	a5,-113(s0)
    80202484:	00068793          	mv	a5,a3
    80202488:	f8f42423          	sw	a5,-120(s0)
    8020248c:	00070793          	mv	a5,a4
    80202490:	f8f40723          	sb	a5,-114(s0)
    80202494:	fe042623          	sw	zero,-20(s0)
    80202498:	f9043783          	ld	a5,-112(s0)
    8020249c:	0a079a63          	bnez	a5,80202550 <log_append_uint+0x114>
    802024a0:	fec42783          	lw	a5,-20(s0)
    802024a4:	0017871b          	addiw	a4,a5,1
    802024a8:	fee42623          	sw	a4,-20(s0)
    802024ac:	ff078793          	addi	a5,a5,-16
    802024b0:	008787b3          	add	a5,a5,s0
    802024b4:	03000713          	li	a4,48
    802024b8:	fce78423          	sb	a4,-56(a5)
    802024bc:	0ac0006f          	j	80202568 <log_append_uint+0x12c>
    802024c0:	f9846783          	lwu	a5,-104(s0)
    802024c4:	f9043703          	ld	a4,-112(s0)
    802024c8:	02f777b3          	remu	a5,a4,a5
    802024cc:	fef42023          	sw	a5,-32(s0)
    802024d0:	f9846783          	lwu	a5,-104(s0)
    802024d4:	f9043703          	ld	a4,-112(s0)
    802024d8:	02f757b3          	divu	a5,a4,a5
    802024dc:	f8f43823          	sd	a5,-112(s0)
    802024e0:	fe042783          	lw	a5,-32(s0)
    802024e4:	0007871b          	sext.w	a4,a5
    802024e8:	00900793          	li	a5,9
    802024ec:	00e7ec63          	bltu	a5,a4,80202504 <log_append_uint+0xc8>
    802024f0:	fe042783          	lw	a5,-32(s0)
    802024f4:	0ff7f793          	zext.b	a5,a5
    802024f8:	0307879b          	addiw	a5,a5,48
    802024fc:	fef405a3          	sb	a5,-21(s0)
    80202500:	0340006f          	j	80202534 <log_append_uint+0xf8>
    80202504:	f8f44783          	lbu	a5,-113(s0)
    80202508:	0ff7f793          	zext.b	a5,a5
    8020250c:	00078663          	beqz	a5,80202518 <log_append_uint+0xdc>
    80202510:	04100793          	li	a5,65
    80202514:	0080006f          	j	8020251c <log_append_uint+0xe0>
    80202518:	06100793          	li	a5,97
    8020251c:	fe042703          	lw	a4,-32(s0)
    80202520:	0ff77713          	zext.b	a4,a4
    80202524:	00e787bb          	addw	a5,a5,a4
    80202528:	0ff7f793          	zext.b	a5,a5
    8020252c:	ff67879b          	addiw	a5,a5,-10
    80202530:	fef405a3          	sb	a5,-21(s0)
    80202534:	fec42783          	lw	a5,-20(s0)
    80202538:	0017871b          	addiw	a4,a5,1
    8020253c:	fee42623          	sw	a4,-20(s0)
    80202540:	ff078793          	addi	a5,a5,-16
    80202544:	008787b3          	add	a5,a5,s0
    80202548:	feb44703          	lbu	a4,-21(s0)
    8020254c:	fce78423          	sb	a4,-56(a5)
    80202550:	f9043783          	ld	a5,-112(s0)
    80202554:	00078a63          	beqz	a5,80202568 <log_append_uint+0x12c>
    80202558:	fec42783          	lw	a5,-20(s0)
    8020255c:	0007871b          	sext.w	a4,a5
    80202560:	01f00793          	li	a5,31
    80202564:	f4e7dee3          	bge	a5,a4,802024c0 <log_append_uint+0x84>
    80202568:	fec42783          	lw	a5,-20(s0)
    8020256c:	fcf42e23          	sw	a5,-36(s0)
    80202570:	f8842783          	lw	a5,-120(s0)
    80202574:	00078713          	mv	a4,a5
    80202578:	fdc42783          	lw	a5,-36(s0)
    8020257c:	0007071b          	sext.w	a4,a4
    80202580:	0007879b          	sext.w	a5,a5
    80202584:	00f75663          	bge	a4,a5,80202590 <log_append_uint+0x154>
    80202588:	fdc42783          	lw	a5,-36(s0)
    8020258c:	f8f42423          	sw	a5,-120(s0)
    80202590:	f8842783          	lw	a5,-120(s0)
    80202594:	00078713          	mv	a4,a5
    80202598:	fdc42783          	lw	a5,-36(s0)
    8020259c:	40f707bb          	subw	a5,a4,a5
    802025a0:	fef42223          	sw	a5,-28(s0)
    802025a4:	0300006f          	j	802025d4 <log_append_uint+0x198>
    802025a8:	fa043783          	ld	a5,-96(s0)
    802025ac:	0007a783          	lw	a5,0(a5)
    802025b0:	0017871b          	addiw	a4,a5,1
    802025b4:	0007069b          	sext.w	a3,a4
    802025b8:	fa043703          	ld	a4,-96(s0)
    802025bc:	00d72023          	sw	a3,0(a4)
    802025c0:	00078713          	mv	a4,a5
    802025c4:	fa843783          	ld	a5,-88(s0)
    802025c8:	00e787b3          	add	a5,a5,a4
    802025cc:	f8e44703          	lbu	a4,-114(s0)
    802025d0:	00e78023          	sb	a4,0(a5)
    802025d4:	fe442783          	lw	a5,-28(s0)
    802025d8:	fff7871b          	addiw	a4,a5,-1
    802025dc:	fee42223          	sw	a4,-28(s0)
    802025e0:	06f05263          	blez	a5,80202644 <log_append_uint+0x208>
    802025e4:	fa043783          	ld	a5,-96(s0)
    802025e8:	0007a703          	lw	a4,0(a5)
    802025ec:	f9c42783          	lw	a5,-100(s0)
    802025f0:	fff7879b          	addiw	a5,a5,-1
    802025f4:	0007879b          	sext.w	a5,a5
    802025f8:	faf748e3          	blt	a4,a5,802025a8 <log_append_uint+0x16c>
    802025fc:	0480006f          	j	80202644 <log_append_uint+0x208>
    80202600:	fec42783          	lw	a5,-20(s0)
    80202604:	fff7879b          	addiw	a5,a5,-1
    80202608:	fef42623          	sw	a5,-20(s0)
    8020260c:	fa043783          	ld	a5,-96(s0)
    80202610:	0007a783          	lw	a5,0(a5)
    80202614:	0017871b          	addiw	a4,a5,1
    80202618:	0007069b          	sext.w	a3,a4
    8020261c:	fa043703          	ld	a4,-96(s0)
    80202620:	00d72023          	sw	a3,0(a4)
    80202624:	00078713          	mv	a4,a5
    80202628:	fa843783          	ld	a5,-88(s0)
    8020262c:	00e787b3          	add	a5,a5,a4
    80202630:	fec42703          	lw	a4,-20(s0)
    80202634:	ff070713          	addi	a4,a4,-16
    80202638:	00870733          	add	a4,a4,s0
    8020263c:	fc874703          	lbu	a4,-56(a4)
    80202640:	00e78023          	sb	a4,0(a5)
    80202644:	fec42783          	lw	a5,-20(s0)
    80202648:	0007879b          	sext.w	a5,a5
    8020264c:	00f05e63          	blez	a5,80202668 <log_append_uint+0x22c>
    80202650:	fa043783          	ld	a5,-96(s0)
    80202654:	0007a703          	lw	a4,0(a5)
    80202658:	f9c42783          	lw	a5,-100(s0)
    8020265c:	fff7879b          	addiw	a5,a5,-1
    80202660:	0007879b          	sext.w	a5,a5
    80202664:	f8f74ee3          	blt	a4,a5,80202600 <log_append_uint+0x1c4>
    80202668:	00000013          	nop
    8020266c:	07813083          	ld	ra,120(sp)
    80202670:	07013403          	ld	s0,112(sp)
    80202674:	08010113          	addi	sp,sp,128
    80202678:	00008067          	ret

000000008020267c <log_vformat>:
    8020267c:	f7010113          	addi	sp,sp,-144
    80202680:	08113423          	sd	ra,136(sp)
    80202684:	08813023          	sd	s0,128(sp)
    80202688:	09010413          	addi	s0,sp,144
    8020268c:	f8a43423          	sd	a0,-120(s0)
    80202690:	00058793          	mv	a5,a1
    80202694:	f6c43c23          	sd	a2,-136(s0)
    80202698:	f6d43823          	sd	a3,-144(s0)
    8020269c:	f8f42223          	sw	a5,-124(s0)
    802026a0:	f8042823          	sw	zero,-112(s0)
    802026a4:	f7843783          	ld	a5,-136(s0)
    802026a8:	fef43423          	sd	a5,-24(s0)
    802026ac:	5480006f          	j	80202bf4 <log_vformat+0x578>
    802026b0:	fe843783          	ld	a5,-24(s0)
    802026b4:	0007c783          	lbu	a5,0(a5)
    802026b8:	00078713          	mv	a4,a5
    802026bc:	02500793          	li	a5,37
    802026c0:	02f70463          	beq	a4,a5,802026e8 <log_vformat+0x6c>
    802026c4:	fe843783          	ld	a5,-24(s0)
    802026c8:	0007c683          	lbu	a3,0(a5)
    802026cc:	f8442703          	lw	a4,-124(s0)
    802026d0:	f9040793          	addi	a5,s0,-112
    802026d4:	00070613          	mv	a2,a4
    802026d8:	00078593          	mv	a1,a5
    802026dc:	f8843503          	ld	a0,-120(s0)
    802026e0:	c2dff0ef          	jal	8020230c <log_append_char>
    802026e4:	5040006f          	j	80202be8 <log_vformat+0x56c>
    802026e8:	fe843783          	ld	a5,-24(s0)
    802026ec:	00178793          	addi	a5,a5,1
    802026f0:	fef43423          	sd	a5,-24(s0)
    802026f4:	fe843783          	ld	a5,-24(s0)
    802026f8:	0007c783          	lbu	a5,0(a5)
    802026fc:	00078713          	mv	a4,a5
    80202700:	02500793          	li	a5,37
    80202704:	02f71263          	bne	a4,a5,80202728 <log_vformat+0xac>
    80202708:	f8442703          	lw	a4,-124(s0)
    8020270c:	f9040793          	addi	a5,s0,-112
    80202710:	02500693          	li	a3,37
    80202714:	00070613          	mv	a2,a4
    80202718:	00078593          	mv	a1,a5
    8020271c:	f8843503          	ld	a0,-120(s0)
    80202720:	bedff0ef          	jal	8020230c <log_append_char>
    80202724:	4c40006f          	j	80202be8 <log_vformat+0x56c>
    80202728:	02000793          	li	a5,32
    8020272c:	fef403a3          	sb	a5,-25(s0)
    80202730:	fe042023          	sw	zero,-32(s0)
    80202734:	fe843783          	ld	a5,-24(s0)
    80202738:	0007c783          	lbu	a5,0(a5)
    8020273c:	00078713          	mv	a4,a5
    80202740:	03000793          	li	a5,48
    80202744:	06f71063          	bne	a4,a5,802027a4 <log_vformat+0x128>
    80202748:	03000793          	li	a5,48
    8020274c:	fef403a3          	sb	a5,-25(s0)
    80202750:	fe843783          	ld	a5,-24(s0)
    80202754:	00178793          	addi	a5,a5,1
    80202758:	fef43423          	sd	a5,-24(s0)
    8020275c:	0480006f          	j	802027a4 <log_vformat+0x128>
    80202760:	fe042783          	lw	a5,-32(s0)
    80202764:	00078713          	mv	a4,a5
    80202768:	00070793          	mv	a5,a4
    8020276c:	0027979b          	slliw	a5,a5,0x2
    80202770:	00e787bb          	addw	a5,a5,a4
    80202774:	0017979b          	slliw	a5,a5,0x1
    80202778:	0007871b          	sext.w	a4,a5
    8020277c:	fe843783          	ld	a5,-24(s0)
    80202780:	0007c783          	lbu	a5,0(a5)
    80202784:	0007879b          	sext.w	a5,a5
    80202788:	fd07879b          	addiw	a5,a5,-48
    8020278c:	0007879b          	sext.w	a5,a5
    80202790:	00f707bb          	addw	a5,a4,a5
    80202794:	fef42023          	sw	a5,-32(s0)
    80202798:	fe843783          	ld	a5,-24(s0)
    8020279c:	00178793          	addi	a5,a5,1
    802027a0:	fef43423          	sd	a5,-24(s0)
    802027a4:	fe843783          	ld	a5,-24(s0)
    802027a8:	0007c783          	lbu	a5,0(a5)
    802027ac:	00078713          	mv	a4,a5
    802027b0:	02f00793          	li	a5,47
    802027b4:	00e7fc63          	bgeu	a5,a4,802027cc <log_vformat+0x150>
    802027b8:	fe843783          	ld	a5,-24(s0)
    802027bc:	0007c783          	lbu	a5,0(a5)
    802027c0:	00078713          	mv	a4,a5
    802027c4:	03900793          	li	a5,57
    802027c8:	f8e7fce3          	bgeu	a5,a4,80202760 <log_vformat+0xe4>
    802027cc:	fc042e23          	sw	zero,-36(s0)
    802027d0:	fe843783          	ld	a5,-24(s0)
    802027d4:	0007c783          	lbu	a5,0(a5)
    802027d8:	00078713          	mv	a4,a5
    802027dc:	06c00793          	li	a5,108
    802027e0:	04f71063          	bne	a4,a5,80202820 <log_vformat+0x1a4>
    802027e4:	fe843783          	ld	a5,-24(s0)
    802027e8:	00178793          	addi	a5,a5,1
    802027ec:	fef43423          	sd	a5,-24(s0)
    802027f0:	00100793          	li	a5,1
    802027f4:	fcf42e23          	sw	a5,-36(s0)
    802027f8:	fe843783          	ld	a5,-24(s0)
    802027fc:	0007c783          	lbu	a5,0(a5)
    80202800:	00078713          	mv	a4,a5
    80202804:	06c00793          	li	a5,108
    80202808:	00f71c63          	bne	a4,a5,80202820 <log_vformat+0x1a4>
    8020280c:	fe843783          	ld	a5,-24(s0)
    80202810:	00178793          	addi	a5,a5,1
    80202814:	fef43423          	sd	a5,-24(s0)
    80202818:	00200793          	li	a5,2
    8020281c:	fcf42e23          	sw	a5,-36(s0)
    80202820:	fe843783          	ld	a5,-24(s0)
    80202824:	0007c783          	lbu	a5,0(a5)
    80202828:	faf40ba3          	sb	a5,-73(s0)
    8020282c:	fb744783          	lbu	a5,-73(s0)
    80202830:	0007879b          	sext.w	a5,a5
    80202834:	07800713          	li	a4,120
    80202838:	26e78063          	beq	a5,a4,80202a98 <log_vformat+0x41c>
    8020283c:	07800713          	li	a4,120
    80202840:	36f74663          	blt	a4,a5,80202bac <log_vformat+0x530>
    80202844:	07500713          	li	a4,117
    80202848:	1ae78a63          	beq	a5,a4,802029fc <log_vformat+0x380>
    8020284c:	07500713          	li	a4,117
    80202850:	34f74e63          	blt	a4,a5,80202bac <log_vformat+0x530>
    80202854:	07300713          	li	a4,115
    80202858:	04e78863          	beq	a5,a4,802028a8 <log_vformat+0x22c>
    8020285c:	07300713          	li	a4,115
    80202860:	34f74663          	blt	a4,a5,80202bac <log_vformat+0x530>
    80202864:	07000713          	li	a4,112
    80202868:	2ee78063          	beq	a5,a4,80202b48 <log_vformat+0x4cc>
    8020286c:	07000713          	li	a4,112
    80202870:	32f74e63          	blt	a4,a5,80202bac <log_vformat+0x530>
    80202874:	06900713          	li	a4,105
    80202878:	08e78e63          	beq	a5,a4,80202914 <log_vformat+0x298>
    8020287c:	06900713          	li	a4,105
    80202880:	32f74663          	blt	a4,a5,80202bac <log_vformat+0x530>
    80202884:	06400713          	li	a4,100
    80202888:	08e78663          	beq	a5,a4,80202914 <log_vformat+0x298>
    8020288c:	06400713          	li	a4,100
    80202890:	30f74e63          	blt	a4,a5,80202bac <log_vformat+0x530>
    80202894:	05800713          	li	a4,88
    80202898:	20e78063          	beq	a5,a4,80202a98 <log_vformat+0x41c>
    8020289c:	06300713          	li	a4,99
    802028a0:	02e78e63          	beq	a5,a4,802028dc <log_vformat+0x260>
    802028a4:	3080006f          	j	80202bac <log_vformat+0x530>
    802028a8:	f7043783          	ld	a5,-144(s0)
    802028ac:	00878713          	addi	a4,a5,8
    802028b0:	f6e43823          	sd	a4,-144(s0)
    802028b4:	0007b783          	ld	a5,0(a5)
    802028b8:	faf43423          	sd	a5,-88(s0)
    802028bc:	f8442703          	lw	a4,-124(s0)
    802028c0:	f9040793          	addi	a5,s0,-112
    802028c4:	fa843683          	ld	a3,-88(s0)
    802028c8:	00070613          	mv	a2,a4
    802028cc:	00078593          	mv	a1,a5
    802028d0:	f8843503          	ld	a0,-120(s0)
    802028d4:	abdff0ef          	jal	80202390 <log_append_str>
    802028d8:	3100006f          	j	80202be8 <log_vformat+0x56c>
    802028dc:	f7043783          	ld	a5,-144(s0)
    802028e0:	00878713          	addi	a4,a5,8
    802028e4:	f6e43823          	sd	a4,-144(s0)
    802028e8:	0007a783          	lw	a5,0(a5)
    802028ec:	f8f42a23          	sw	a5,-108(s0)
    802028f0:	f9442783          	lw	a5,-108(s0)
    802028f4:	0ff7f693          	zext.b	a3,a5
    802028f8:	f8442703          	lw	a4,-124(s0)
    802028fc:	f9040793          	addi	a5,s0,-112
    80202900:	00070613          	mv	a2,a4
    80202904:	00078593          	mv	a1,a5
    80202908:	f8843503          	ld	a0,-120(s0)
    8020290c:	a01ff0ef          	jal	8020230c <log_append_char>
    80202910:	2d80006f          	j	80202be8 <log_vformat+0x56c>
    80202914:	fdc42783          	lw	a5,-36(s0)
    80202918:	0007871b          	sext.w	a4,a5
    8020291c:	00200793          	li	a5,2
    80202920:	00f71e63          	bne	a4,a5,8020293c <log_vformat+0x2c0>
    80202924:	f7043783          	ld	a5,-144(s0)
    80202928:	00878713          	addi	a4,a5,8
    8020292c:	f6e43823          	sd	a4,-144(s0)
    80202930:	0007b783          	ld	a5,0(a5)
    80202934:	fcf43823          	sd	a5,-48(s0)
    80202938:	0400006f          	j	80202978 <log_vformat+0x2fc>
    8020293c:	fdc42783          	lw	a5,-36(s0)
    80202940:	0007871b          	sext.w	a4,a5
    80202944:	00100793          	li	a5,1
    80202948:	00f71e63          	bne	a4,a5,80202964 <log_vformat+0x2e8>
    8020294c:	f7043783          	ld	a5,-144(s0)
    80202950:	00878713          	addi	a4,a5,8
    80202954:	f6e43823          	sd	a4,-144(s0)
    80202958:	0007b783          	ld	a5,0(a5)
    8020295c:	fcf43823          	sd	a5,-48(s0)
    80202960:	0180006f          	j	80202978 <log_vformat+0x2fc>
    80202964:	f7043783          	ld	a5,-144(s0)
    80202968:	00878713          	addi	a4,a5,8
    8020296c:	f6e43823          	sd	a4,-144(s0)
    80202970:	0007a783          	lw	a5,0(a5)
    80202974:	fcf43823          	sd	a5,-48(s0)
    80202978:	fd043783          	ld	a5,-48(s0)
    8020297c:	0407d463          	bgez	a5,802029c4 <log_vformat+0x348>
    80202980:	f8442703          	lw	a4,-124(s0)
    80202984:	f9040793          	addi	a5,s0,-112
    80202988:	02d00693          	li	a3,45
    8020298c:	00070613          	mv	a2,a4
    80202990:	00078593          	mv	a1,a5
    80202994:	f8843503          	ld	a0,-120(s0)
    80202998:	975ff0ef          	jal	8020230c <log_append_char>
    8020299c:	fd043783          	ld	a5,-48(s0)
    802029a0:	40f007b3          	neg	a5,a5
    802029a4:	fcf43423          	sd	a5,-56(s0)
    802029a8:	fe042783          	lw	a5,-32(s0)
    802029ac:	0007879b          	sext.w	a5,a5
    802029b0:	00f05e63          	blez	a5,802029cc <log_vformat+0x350>
    802029b4:	fe042783          	lw	a5,-32(s0)
    802029b8:	fff7879b          	addiw	a5,a5,-1
    802029bc:	fef42023          	sw	a5,-32(s0)
    802029c0:	00c0006f          	j	802029cc <log_vformat+0x350>
    802029c4:	fd043783          	ld	a5,-48(s0)
    802029c8:	fcf43423          	sd	a5,-56(s0)
    802029cc:	fe744703          	lbu	a4,-25(s0)
    802029d0:	fe042783          	lw	a5,-32(s0)
    802029d4:	f8442603          	lw	a2,-124(s0)
    802029d8:	f9040593          	addi	a1,s0,-112
    802029dc:	00070893          	mv	a7,a4
    802029e0:	00078813          	mv	a6,a5
    802029e4:	00000793          	li	a5,0
    802029e8:	00a00713          	li	a4,10
    802029ec:	fc843683          	ld	a3,-56(s0)
    802029f0:	f8843503          	ld	a0,-120(s0)
    802029f4:	a49ff0ef          	jal	8020243c <log_append_uint>
    802029f8:	1f00006f          	j	80202be8 <log_vformat+0x56c>
    802029fc:	fdc42783          	lw	a5,-36(s0)
    80202a00:	0007871b          	sext.w	a4,a5
    80202a04:	00200793          	li	a5,2
    80202a08:	00f71e63          	bne	a4,a5,80202a24 <log_vformat+0x3a8>
    80202a0c:	f7043783          	ld	a5,-144(s0)
    80202a10:	00878713          	addi	a4,a5,8
    80202a14:	f6e43823          	sd	a4,-144(s0)
    80202a18:	0007b783          	ld	a5,0(a5)
    80202a1c:	fcf43023          	sd	a5,-64(s0)
    80202a20:	0480006f          	j	80202a68 <log_vformat+0x3ec>
    80202a24:	fdc42783          	lw	a5,-36(s0)
    80202a28:	0007871b          	sext.w	a4,a5
    80202a2c:	00100793          	li	a5,1
    80202a30:	00f71e63          	bne	a4,a5,80202a4c <log_vformat+0x3d0>
    80202a34:	f7043783          	ld	a5,-144(s0)
    80202a38:	00878713          	addi	a4,a5,8
    80202a3c:	f6e43823          	sd	a4,-144(s0)
    80202a40:	0007b783          	ld	a5,0(a5)
    80202a44:	fcf43023          	sd	a5,-64(s0)
    80202a48:	0200006f          	j	80202a68 <log_vformat+0x3ec>
    80202a4c:	f7043783          	ld	a5,-144(s0)
    80202a50:	00878713          	addi	a4,a5,8
    80202a54:	f6e43823          	sd	a4,-144(s0)
    80202a58:	0007a783          	lw	a5,0(a5)
    80202a5c:	02079793          	slli	a5,a5,0x20
    80202a60:	0207d793          	srli	a5,a5,0x20
    80202a64:	fcf43023          	sd	a5,-64(s0)
    80202a68:	fe744703          	lbu	a4,-25(s0)
    80202a6c:	fe042783          	lw	a5,-32(s0)
    80202a70:	f8442603          	lw	a2,-124(s0)
    80202a74:	f9040593          	addi	a1,s0,-112
    80202a78:	00070893          	mv	a7,a4
    80202a7c:	00078813          	mv	a6,a5
    80202a80:	00000793          	li	a5,0
    80202a84:	00a00713          	li	a4,10
    80202a88:	fc043683          	ld	a3,-64(s0)
    80202a8c:	f8843503          	ld	a0,-120(s0)
    80202a90:	9adff0ef          	jal	8020243c <log_append_uint>
    80202a94:	1540006f          	j	80202be8 <log_vformat+0x56c>
    80202a98:	fdc42783          	lw	a5,-36(s0)
    80202a9c:	0007871b          	sext.w	a4,a5
    80202aa0:	00200793          	li	a5,2
    80202aa4:	00f71e63          	bne	a4,a5,80202ac0 <log_vformat+0x444>
    80202aa8:	f7043783          	ld	a5,-144(s0)
    80202aac:	00878713          	addi	a4,a5,8
    80202ab0:	f6e43823          	sd	a4,-144(s0)
    80202ab4:	0007b783          	ld	a5,0(a5)
    80202ab8:	faf43c23          	sd	a5,-72(s0)
    80202abc:	0480006f          	j	80202b04 <log_vformat+0x488>
    80202ac0:	fdc42783          	lw	a5,-36(s0)
    80202ac4:	0007871b          	sext.w	a4,a5
    80202ac8:	00100793          	li	a5,1
    80202acc:	00f71e63          	bne	a4,a5,80202ae8 <log_vformat+0x46c>
    80202ad0:	f7043783          	ld	a5,-144(s0)
    80202ad4:	00878713          	addi	a4,a5,8
    80202ad8:	f6e43823          	sd	a4,-144(s0)
    80202adc:	0007b783          	ld	a5,0(a5)
    80202ae0:	faf43c23          	sd	a5,-72(s0)
    80202ae4:	0200006f          	j	80202b04 <log_vformat+0x488>
    80202ae8:	f7043783          	ld	a5,-144(s0)
    80202aec:	00878713          	addi	a4,a5,8
    80202af0:	f6e43823          	sd	a4,-144(s0)
    80202af4:	0007a783          	lw	a5,0(a5)
    80202af8:	02079793          	slli	a5,a5,0x20
    80202afc:	0207d793          	srli	a5,a5,0x20
    80202b00:	faf43c23          	sd	a5,-72(s0)
    80202b04:	fb744783          	lbu	a5,-73(s0)
    80202b08:	0007871b          	sext.w	a4,a5
    80202b0c:	05800793          	li	a5,88
    80202b10:	40f707b3          	sub	a5,a4,a5
    80202b14:	0017b793          	seqz	a5,a5
    80202b18:	0ff7f793          	zext.b	a5,a5
    80202b1c:	fe744683          	lbu	a3,-25(s0)
    80202b20:	fe042703          	lw	a4,-32(s0)
    80202b24:	f8442603          	lw	a2,-124(s0)
    80202b28:	f9040593          	addi	a1,s0,-112
    80202b2c:	00068893          	mv	a7,a3
    80202b30:	00070813          	mv	a6,a4
    80202b34:	01000713          	li	a4,16
    80202b38:	fb843683          	ld	a3,-72(s0)
    80202b3c:	f8843503          	ld	a0,-120(s0)
    80202b40:	8fdff0ef          	jal	8020243c <log_append_uint>
    80202b44:	0a40006f          	j	80202be8 <log_vformat+0x56c>
    80202b48:	f7043783          	ld	a5,-144(s0)
    80202b4c:	00878713          	addi	a4,a5,8
    80202b50:	f6e43823          	sd	a4,-144(s0)
    80202b54:	0007b783          	ld	a5,0(a5)
    80202b58:	faf43023          	sd	a5,-96(s0)
    80202b5c:	f8442703          	lw	a4,-124(s0)
    80202b60:	f9040793          	addi	a5,s0,-112
    80202b64:	00001697          	auipc	a3,0x1
    80202b68:	19468693          	addi	a3,a3,404 # 80203cf8 <__func__.0+0x150>
    80202b6c:	00070613          	mv	a2,a4
    80202b70:	00078593          	mv	a1,a5
    80202b74:	f8843503          	ld	a0,-120(s0)
    80202b78:	819ff0ef          	jal	80202390 <log_append_str>
    80202b7c:	fa043783          	ld	a5,-96(s0)
    80202b80:	f8f43c23          	sd	a5,-104(s0)
    80202b84:	f8442603          	lw	a2,-124(s0)
    80202b88:	f9040593          	addi	a1,s0,-112
    80202b8c:	02000893          	li	a7,32
    80202b90:	00000813          	li	a6,0
    80202b94:	00000793          	li	a5,0
    80202b98:	01000713          	li	a4,16
    80202b9c:	f9843683          	ld	a3,-104(s0)
    80202ba0:	f8843503          	ld	a0,-120(s0)
    80202ba4:	899ff0ef          	jal	8020243c <log_append_uint>
    80202ba8:	0400006f          	j	80202be8 <log_vformat+0x56c>
    80202bac:	f8442703          	lw	a4,-124(s0)
    80202bb0:	f9040793          	addi	a5,s0,-112
    80202bb4:	02500693          	li	a3,37
    80202bb8:	00070613          	mv	a2,a4
    80202bbc:	00078593          	mv	a1,a5
    80202bc0:	f8843503          	ld	a0,-120(s0)
    80202bc4:	f48ff0ef          	jal	8020230c <log_append_char>
    80202bc8:	fb744683          	lbu	a3,-73(s0)
    80202bcc:	f8442703          	lw	a4,-124(s0)
    80202bd0:	f9040793          	addi	a5,s0,-112
    80202bd4:	00070613          	mv	a2,a4
    80202bd8:	00078593          	mv	a1,a5
    80202bdc:	f8843503          	ld	a0,-120(s0)
    80202be0:	f2cff0ef          	jal	8020230c <log_append_char>
    80202be4:	00000013          	nop
    80202be8:	fe843783          	ld	a5,-24(s0)
    80202bec:	00178793          	addi	a5,a5,1
    80202bf0:	fef43423          	sd	a5,-24(s0)
    80202bf4:	fe843783          	ld	a5,-24(s0)
    80202bf8:	0007c783          	lbu	a5,0(a5)
    80202bfc:	00078c63          	beqz	a5,80202c14 <log_vformat+0x598>
    80202c00:	f8442783          	lw	a5,-124(s0)
    80202c04:	fff7879b          	addiw	a5,a5,-1
    80202c08:	0007871b          	sext.w	a4,a5
    80202c0c:	f9042783          	lw	a5,-112(s0)
    80202c10:	aae7c0e3          	blt	a5,a4,802026b0 <log_vformat+0x34>
    80202c14:	f9042783          	lw	a5,-112(s0)
    80202c18:	00078713          	mv	a4,a5
    80202c1c:	f8843783          	ld	a5,-120(s0)
    80202c20:	00e787b3          	add	a5,a5,a4
    80202c24:	00078023          	sb	zero,0(a5)
    80202c28:	f9042783          	lw	a5,-112(s0)
    80202c2c:	00078513          	mv	a0,a5
    80202c30:	08813083          	ld	ra,136(sp)
    80202c34:	08013403          	ld	s0,128(sp)
    80202c38:	09010113          	addi	sp,sp,144
    80202c3c:	00008067          	ret

0000000080202c40 <log_isprint>:
    80202c40:	fe010113          	addi	sp,sp,-32
    80202c44:	00113c23          	sd	ra,24(sp)
    80202c48:	00813823          	sd	s0,16(sp)
    80202c4c:	02010413          	addi	s0,sp,32
    80202c50:	00050793          	mv	a5,a0
    80202c54:	fef407a3          	sb	a5,-17(s0)
    80202c58:	fef44783          	lbu	a5,-17(s0)
    80202c5c:	0ff7f713          	zext.b	a4,a5
    80202c60:	01f00793          	li	a5,31
    80202c64:	00e7fe63          	bgeu	a5,a4,80202c80 <log_isprint+0x40>
    80202c68:	fef44783          	lbu	a5,-17(s0)
    80202c6c:	0ff7f713          	zext.b	a4,a5
    80202c70:	07e00793          	li	a5,126
    80202c74:	00e7e663          	bltu	a5,a4,80202c80 <log_isprint+0x40>
    80202c78:	00100793          	li	a5,1
    80202c7c:	0080006f          	j	80202c84 <log_isprint+0x44>
    80202c80:	00000793          	li	a5,0
    80202c84:	00078513          	mv	a0,a5
    80202c88:	01813083          	ld	ra,24(sp)
    80202c8c:	01013403          	ld	s0,16(sp)
    80202c90:	02010113          	addi	sp,sp,32
    80202c94:	00008067          	ret

0000000080202c98 <log_init>:
    80202c98:	fe010113          	addi	sp,sp,-32
    80202c9c:	00113c23          	sd	ra,24(sp)
    80202ca0:	00813823          	sd	s0,16(sp)
    80202ca4:	02010413          	addi	s0,sp,32
    80202ca8:	fea43423          	sd	a0,-24(s0)
    80202cac:	0000d797          	auipc	a5,0xd
    80202cb0:	f0478793          	addi	a5,a5,-252 # 8020fbb0 <s_write_fn>
    80202cb4:	fe843703          	ld	a4,-24(s0)
    80202cb8:	00e7b023          	sd	a4,0(a5)
    80202cbc:	00000013          	nop
    80202cc0:	01813083          	ld	ra,24(sp)
    80202cc4:	01013403          	ld	s0,16(sp)
    80202cc8:	02010113          	addi	sp,sp,32
    80202ccc:	00008067          	ret

0000000080202cd0 <log_set_level>:
    80202cd0:	fe010113          	addi	sp,sp,-32
    80202cd4:	00113c23          	sd	ra,24(sp)
    80202cd8:	00813823          	sd	s0,16(sp)
    80202cdc:	02010413          	addi	s0,sp,32
    80202ce0:	00050793          	mv	a5,a0
    80202ce4:	fef42623          	sw	a5,-20(s0)
    80202ce8:	00001797          	auipc	a5,0x1
    80202cec:	0e878793          	addi	a5,a5,232 # 80203dd0 <s_log_level>
    80202cf0:	fec42703          	lw	a4,-20(s0)
    80202cf4:	00e7a023          	sw	a4,0(a5)
    80202cf8:	00000013          	nop
    80202cfc:	01813083          	ld	ra,24(sp)
    80202d00:	01013403          	ld	s0,16(sp)
    80202d04:	02010113          	addi	sp,sp,32
    80202d08:	00008067          	ret

0000000080202d0c <log_get_level>:
    80202d0c:	ff010113          	addi	sp,sp,-16
    80202d10:	00113423          	sd	ra,8(sp)
    80202d14:	00813023          	sd	s0,0(sp)
    80202d18:	01010413          	addi	s0,sp,16
    80202d1c:	00001797          	auipc	a5,0x1
    80202d20:	0b478793          	addi	a5,a5,180 # 80203dd0 <s_log_level>
    80202d24:	0007a783          	lw	a5,0(a5)
    80202d28:	0007879b          	sext.w	a5,a5
    80202d2c:	00078513          	mv	a0,a5
    80202d30:	00813083          	ld	ra,8(sp)
    80202d34:	00013403          	ld	s0,0(sp)
    80202d38:	01010113          	addi	sp,sp,16
    80202d3c:	00008067          	ret

0000000080202d40 <log_set_path_mode>:
    80202d40:	fe010113          	addi	sp,sp,-32
    80202d44:	00113c23          	sd	ra,24(sp)
    80202d48:	00813823          	sd	s0,16(sp)
    80202d4c:	02010413          	addi	s0,sp,32
    80202d50:	00050793          	mv	a5,a0
    80202d54:	fef42623          	sw	a5,-20(s0)
    80202d58:	00001797          	auipc	a5,0x1
    80202d5c:	07c78793          	addi	a5,a5,124 # 80203dd4 <s_path_mode>
    80202d60:	fec42703          	lw	a4,-20(s0)
    80202d64:	00e7a023          	sw	a4,0(a5)
    80202d68:	00000013          	nop
    80202d6c:	01813083          	ld	ra,24(sp)
    80202d70:	01013403          	ld	s0,16(sp)
    80202d74:	02010113          	addi	sp,sp,32
    80202d78:	00008067          	ret

0000000080202d7c <log_get_path_mode>:
    80202d7c:	ff010113          	addi	sp,sp,-16
    80202d80:	00113423          	sd	ra,8(sp)
    80202d84:	00813023          	sd	s0,0(sp)
    80202d88:	01010413          	addi	s0,sp,16
    80202d8c:	00001797          	auipc	a5,0x1
    80202d90:	04878793          	addi	a5,a5,72 # 80203dd4 <s_path_mode>
    80202d94:	0007a783          	lw	a5,0(a5)
    80202d98:	0007879b          	sext.w	a5,a5
    80202d9c:	00078513          	mv	a0,a5
    80202da0:	00813083          	ld	ra,8(sp)
    80202da4:	00013403          	ld	s0,0(sp)
    80202da8:	01010113          	addi	sp,sp,16
    80202dac:	00008067          	ret

0000000080202db0 <log_level_to_string>:
    80202db0:	fe010113          	addi	sp,sp,-32
    80202db4:	00113c23          	sd	ra,24(sp)
    80202db8:	00813823          	sd	s0,16(sp)
    80202dbc:	02010413          	addi	s0,sp,32
    80202dc0:	00050793          	mv	a5,a0
    80202dc4:	fef42623          	sw	a5,-20(s0)
    80202dc8:	fec42783          	lw	a5,-20(s0)
    80202dcc:	0007871b          	sext.w	a4,a5
    80202dd0:	00500793          	li	a5,5
    80202dd4:	0af70463          	beq	a4,a5,80202e7c <log_level_to_string+0xcc>
    80202dd8:	fec42783          	lw	a5,-20(s0)
    80202ddc:	0007871b          	sext.w	a4,a5
    80202de0:	00500793          	li	a5,5
    80202de4:	0ae7e263          	bltu	a5,a4,80202e88 <log_level_to_string+0xd8>
    80202de8:	fec42783          	lw	a5,-20(s0)
    80202dec:	0007871b          	sext.w	a4,a5
    80202df0:	00400793          	li	a5,4
    80202df4:	06f70e63          	beq	a4,a5,80202e70 <log_level_to_string+0xc0>
    80202df8:	fec42783          	lw	a5,-20(s0)
    80202dfc:	0007871b          	sext.w	a4,a5
    80202e00:	00400793          	li	a5,4
    80202e04:	08e7e263          	bltu	a5,a4,80202e88 <log_level_to_string+0xd8>
    80202e08:	fec42783          	lw	a5,-20(s0)
    80202e0c:	0007871b          	sext.w	a4,a5
    80202e10:	00300793          	li	a5,3
    80202e14:	04f70863          	beq	a4,a5,80202e64 <log_level_to_string+0xb4>
    80202e18:	fec42783          	lw	a5,-20(s0)
    80202e1c:	0007871b          	sext.w	a4,a5
    80202e20:	00300793          	li	a5,3
    80202e24:	06e7e263          	bltu	a5,a4,80202e88 <log_level_to_string+0xd8>
    80202e28:	fec42783          	lw	a5,-20(s0)
    80202e2c:	0007871b          	sext.w	a4,a5
    80202e30:	00100793          	li	a5,1
    80202e34:	00f70c63          	beq	a4,a5,80202e4c <log_level_to_string+0x9c>
    80202e38:	fec42783          	lw	a5,-20(s0)
    80202e3c:	0007871b          	sext.w	a4,a5
    80202e40:	00200793          	li	a5,2
    80202e44:	00f70a63          	beq	a4,a5,80202e58 <log_level_to_string+0xa8>
    80202e48:	0400006f          	j	80202e88 <log_level_to_string+0xd8>
    80202e4c:	00001797          	auipc	a5,0x1
    80202e50:	eb478793          	addi	a5,a5,-332 # 80203d00 <__func__.0+0x158>
    80202e54:	03c0006f          	j	80202e90 <log_level_to_string+0xe0>
    80202e58:	00001797          	auipc	a5,0x1
    80202e5c:	eb078793          	addi	a5,a5,-336 # 80203d08 <__func__.0+0x160>
    80202e60:	0300006f          	j	80202e90 <log_level_to_string+0xe0>
    80202e64:	00001797          	auipc	a5,0x1
    80202e68:	eac78793          	addi	a5,a5,-340 # 80203d10 <__func__.0+0x168>
    80202e6c:	0240006f          	j	80202e90 <log_level_to_string+0xe0>
    80202e70:	00001797          	auipc	a5,0x1
    80202e74:	ea878793          	addi	a5,a5,-344 # 80203d18 <__func__.0+0x170>
    80202e78:	0180006f          	j	80202e90 <log_level_to_string+0xe0>
    80202e7c:	00001797          	auipc	a5,0x1
    80202e80:	ea478793          	addi	a5,a5,-348 # 80203d20 <__func__.0+0x178>
    80202e84:	00c0006f          	j	80202e90 <log_level_to_string+0xe0>
    80202e88:	00001797          	auipc	a5,0x1
    80202e8c:	ea078793          	addi	a5,a5,-352 # 80203d28 <__func__.0+0x180>
    80202e90:	00078513          	mv	a0,a5
    80202e94:	01813083          	ld	ra,24(sp)
    80202e98:	01013403          	ld	s0,16(sp)
    80202e9c:	02010113          	addi	sp,sp,32
    80202ea0:	00008067          	ret

0000000080202ea4 <log_set_timestamp_fn>:
    80202ea4:	fe010113          	addi	sp,sp,-32
    80202ea8:	00113c23          	sd	ra,24(sp)
    80202eac:	00813823          	sd	s0,16(sp)
    80202eb0:	02010413          	addi	s0,sp,32
    80202eb4:	fea43423          	sd	a0,-24(s0)
    80202eb8:	0000d797          	auipc	a5,0xd
    80202ebc:	d0078793          	addi	a5,a5,-768 # 8020fbb8 <s_ts_fn>
    80202ec0:	fe843703          	ld	a4,-24(s0)
    80202ec4:	00e7b023          	sd	a4,0(a5)
    80202ec8:	00000013          	nop
    80202ecc:	01813083          	ld	ra,24(sp)
    80202ed0:	01013403          	ld	s0,16(sp)
    80202ed4:	02010113          	addi	sp,sp,32
    80202ed8:	00008067          	ret

0000000080202edc <ring_write>:
    80202edc:	fd010113          	addi	sp,sp,-48
    80202ee0:	02113423          	sd	ra,40(sp)
    80202ee4:	02813023          	sd	s0,32(sp)
    80202ee8:	03010413          	addi	s0,sp,48
    80202eec:	fca43c23          	sd	a0,-40(s0)
    80202ef0:	fcb43823          	sd	a1,-48(s0)
    80202ef4:	fd043783          	ld	a5,-48(s0)
    80202ef8:	10078863          	beqz	a5,80203008 <ring_write+0x12c>
    80202efc:	fd043703          	ld	a4,-48(s0)
    80202f00:	000017b7          	lui	a5,0x1
    80202f04:	80078793          	addi	a5,a5,-2048 # 800 <TF_SIZE+0x6e8>
    80202f08:	02e7f263          	bgeu	a5,a4,80202f2c <ring_write+0x50>
    80202f0c:	fd043783          	ld	a5,-48(s0)
    80202f10:	80078793          	addi	a5,a5,-2048
    80202f14:	fd843703          	ld	a4,-40(s0)
    80202f18:	00f707b3          	add	a5,a4,a5
    80202f1c:	fcf43c23          	sd	a5,-40(s0)
    80202f20:	000017b7          	lui	a5,0x1
    80202f24:	80078793          	addi	a5,a5,-2048 # 800 <TF_SIZE+0x6e8>
    80202f28:	fcf43823          	sd	a5,-48(s0)
    80202f2c:	fe043423          	sd	zero,-24(s0)
    80202f30:	0500006f          	j	80202f80 <ring_write+0xa4>
    80202f34:	0000d797          	auipc	a5,0xd
    80202f38:	48c78793          	addi	a5,a5,1164 # 802103c0 <s_ring_head>
    80202f3c:	0007b703          	ld	a4,0(a5)
    80202f40:	fe843783          	ld	a5,-24(s0)
    80202f44:	00f707b3          	add	a5,a4,a5
    80202f48:	7ff7f793          	andi	a5,a5,2047
    80202f4c:	fef43023          	sd	a5,-32(s0)
    80202f50:	fd843703          	ld	a4,-40(s0)
    80202f54:	fe843783          	ld	a5,-24(s0)
    80202f58:	00f707b3          	add	a5,a4,a5
    80202f5c:	0007c703          	lbu	a4,0(a5)
    80202f60:	0000d697          	auipc	a3,0xd
    80202f64:	c6068693          	addi	a3,a3,-928 # 8020fbc0 <s_ring_buf>
    80202f68:	fe043783          	ld	a5,-32(s0)
    80202f6c:	00f687b3          	add	a5,a3,a5
    80202f70:	00e78023          	sb	a4,0(a5)
    80202f74:	fe843783          	ld	a5,-24(s0)
    80202f78:	00178793          	addi	a5,a5,1
    80202f7c:	fef43423          	sd	a5,-24(s0)
    80202f80:	fe843703          	ld	a4,-24(s0)
    80202f84:	fd043783          	ld	a5,-48(s0)
    80202f88:	faf766e3          	bltu	a4,a5,80202f34 <ring_write+0x58>
    80202f8c:	0000d797          	auipc	a5,0xd
    80202f90:	43478793          	addi	a5,a5,1076 # 802103c0 <s_ring_head>
    80202f94:	0007b703          	ld	a4,0(a5)
    80202f98:	fd043783          	ld	a5,-48(s0)
    80202f9c:	00f707b3          	add	a5,a4,a5
    80202fa0:	7ff7f713          	andi	a4,a5,2047
    80202fa4:	0000d797          	auipc	a5,0xd
    80202fa8:	41c78793          	addi	a5,a5,1052 # 802103c0 <s_ring_head>
    80202fac:	00e7b023          	sd	a4,0(a5)
    80202fb0:	0000d797          	auipc	a5,0xd
    80202fb4:	41878793          	addi	a5,a5,1048 # 802103c8 <s_ring_size>
    80202fb8:	0007b703          	ld	a4,0(a5)
    80202fbc:	fd043783          	ld	a5,-48(s0)
    80202fc0:	00f70733          	add	a4,a4,a5
    80202fc4:	7ff00793          	li	a5,2047
    80202fc8:	00e7fe63          	bgeu	a5,a4,80202fe4 <ring_write+0x108>
    80202fcc:	0000d797          	auipc	a5,0xd
    80202fd0:	3fc78793          	addi	a5,a5,1020 # 802103c8 <s_ring_size>
    80202fd4:	00001737          	lui	a4,0x1
    80202fd8:	80070713          	addi	a4,a4,-2048 # 800 <TF_SIZE+0x6e8>
    80202fdc:	00e7b023          	sd	a4,0(a5)
    80202fe0:	02c0006f          	j	8020300c <ring_write+0x130>
    80202fe4:	0000d797          	auipc	a5,0xd
    80202fe8:	3e478793          	addi	a5,a5,996 # 802103c8 <s_ring_size>
    80202fec:	0007b703          	ld	a4,0(a5)
    80202ff0:	fd043783          	ld	a5,-48(s0)
    80202ff4:	00f70733          	add	a4,a4,a5
    80202ff8:	0000d797          	auipc	a5,0xd
    80202ffc:	3d078793          	addi	a5,a5,976 # 802103c8 <s_ring_size>
    80203000:	00e7b023          	sd	a4,0(a5)
    80203004:	0080006f          	j	8020300c <ring_write+0x130>
    80203008:	00000013          	nop
    8020300c:	02813083          	ld	ra,40(sp)
    80203010:	02013403          	ld	s0,32(sp)
    80203014:	03010113          	addi	sp,sp,48
    80203018:	00008067          	ret

000000008020301c <log_vprintf>:
    8020301c:	e9010113          	addi	sp,sp,-368
    80203020:	16113423          	sd	ra,360(sp)
    80203024:	16813023          	sd	s0,352(sp)
    80203028:	17010413          	addi	s0,sp,368
    8020302c:	eab43823          	sd	a1,-336(s0)
    80203030:	ead43423          	sd	a3,-344(s0)
    80203034:	eae43023          	sd	a4,-352(s0)
    80203038:	e8f43c23          	sd	a5,-360(s0)
    8020303c:	00050793          	mv	a5,a0
    80203040:	eaf42e23          	sw	a5,-324(s0)
    80203044:	00060793          	mv	a5,a2
    80203048:	eaf42c23          	sw	a5,-328(s0)
    8020304c:	ec042623          	sw	zero,-308(s0)
    80203050:	ebc42783          	lw	a5,-324(s0)
    80203054:	0007879b          	sext.w	a5,a5
    80203058:	02078063          	beqz	a5,80203078 <log_vprintf+0x5c>
    8020305c:	00001797          	auipc	a5,0x1
    80203060:	d7478793          	addi	a5,a5,-652 # 80203dd0 <s_log_level>
    80203064:	0007a783          	lw	a5,0(a5)
    80203068:	0007879b          	sext.w	a5,a5
    8020306c:	ebc42703          	lw	a4,-324(s0)
    80203070:	0007071b          	sext.w	a4,a4
    80203074:	00e7f663          	bgeu	a5,a4,80203080 <log_vprintf+0x64>
    80203078:	00000793          	li	a5,0
    8020307c:	3540006f          	j	802033d0 <log_vprintf+0x3b4>
    80203080:	0000d797          	auipc	a5,0xd
    80203084:	b3878793          	addi	a5,a5,-1224 # 8020fbb8 <s_ts_fn>
    80203088:	0007b783          	ld	a5,0(a5)
    8020308c:	08078a63          	beqz	a5,80203120 <log_vprintf+0x104>
    80203090:	0000d797          	auipc	a5,0xd
    80203094:	b2878793          	addi	a5,a5,-1240 # 8020fbb8 <s_ts_fn>
    80203098:	0007b783          	ld	a5,0(a5)
    8020309c:	000780e7          	jalr	a5
    802030a0:	00050793          	mv	a5,a0
    802030a4:	fcf42a23          	sw	a5,-44(s0)
    802030a8:	ecc40713          	addi	a4,s0,-308
    802030ac:	ed040793          	addi	a5,s0,-304
    802030b0:	05b00693          	li	a3,91
    802030b4:	10000613          	li	a2,256
    802030b8:	00070593          	mv	a1,a4
    802030bc:	00078513          	mv	a0,a5
    802030c0:	a4cff0ef          	jal	8020230c <log_append_char>
    802030c4:	fd446683          	lwu	a3,-44(s0)
    802030c8:	ecc40593          	addi	a1,s0,-308
    802030cc:	ed040513          	addi	a0,s0,-304
    802030d0:	02000893          	li	a7,32
    802030d4:	00000813          	li	a6,0
    802030d8:	00000793          	li	a5,0
    802030dc:	00a00713          	li	a4,10
    802030e0:	10000613          	li	a2,256
    802030e4:	b58ff0ef          	jal	8020243c <log_append_uint>
    802030e8:	ecc40713          	addi	a4,s0,-308
    802030ec:	ed040793          	addi	a5,s0,-304
    802030f0:	05d00693          	li	a3,93
    802030f4:	10000613          	li	a2,256
    802030f8:	00070593          	mv	a1,a4
    802030fc:	00078513          	mv	a0,a5
    80203100:	a0cff0ef          	jal	8020230c <log_append_char>
    80203104:	ecc40713          	addi	a4,s0,-308
    80203108:	ed040793          	addi	a5,s0,-304
    8020310c:	02000693          	li	a3,32
    80203110:	10000613          	li	a2,256
    80203114:	00070593          	mv	a1,a4
    80203118:	00078513          	mv	a0,a5
    8020311c:	9f0ff0ef          	jal	8020230c <log_append_char>
    80203120:	ecc40713          	addi	a4,s0,-308
    80203124:	ed040793          	addi	a5,s0,-304
    80203128:	05b00693          	li	a3,91
    8020312c:	10000613          	li	a2,256
    80203130:	00070593          	mv	a1,a4
    80203134:	00078513          	mv	a0,a5
    80203138:	9d4ff0ef          	jal	8020230c <log_append_char>
    8020313c:	ebc42783          	lw	a5,-324(s0)
    80203140:	00078513          	mv	a0,a5
    80203144:	c6dff0ef          	jal	80202db0 <log_level_to_string>
    80203148:	00050693          	mv	a3,a0
    8020314c:	ecc40713          	addi	a4,s0,-308
    80203150:	ed040793          	addi	a5,s0,-304
    80203154:	10000613          	li	a2,256
    80203158:	00070593          	mv	a1,a4
    8020315c:	00078513          	mv	a0,a5
    80203160:	a30ff0ef          	jal	80202390 <log_append_str>
    80203164:	ecc40713          	addi	a4,s0,-308
    80203168:	ed040793          	addi	a5,s0,-304
    8020316c:	05d00693          	li	a3,93
    80203170:	10000613          	li	a2,256
    80203174:	00070593          	mv	a1,a4
    80203178:	00078513          	mv	a0,a5
    8020317c:	990ff0ef          	jal	8020230c <log_append_char>
    80203180:	ecc40713          	addi	a4,s0,-308
    80203184:	ed040793          	addi	a5,s0,-304
    80203188:	02000693          	li	a3,32
    8020318c:	10000613          	li	a2,256
    80203190:	00070593          	mv	a1,a4
    80203194:	00078513          	mv	a0,a5
    80203198:	974ff0ef          	jal	8020230c <log_append_char>
    8020319c:	eb043783          	ld	a5,-336(s0)
    802031a0:	10078c63          	beqz	a5,802032b8 <log_vprintf+0x29c>
    802031a4:	00001797          	auipc	a5,0x1
    802031a8:	c3078793          	addi	a5,a5,-976 # 80203dd4 <s_path_mode>
    802031ac:	0007a783          	lw	a5,0(a5)
    802031b0:	0007879b          	sext.w	a5,a5
    802031b4:	10078263          	beqz	a5,802032b8 <log_vprintf+0x29c>
    802031b8:	eb043783          	ld	a5,-336(s0)
    802031bc:	fef43423          	sd	a5,-24(s0)
    802031c0:	00001797          	auipc	a5,0x1
    802031c4:	c1478793          	addi	a5,a5,-1004 # 80203dd4 <s_path_mode>
    802031c8:	0007a783          	lw	a5,0(a5)
    802031cc:	0007871b          	sext.w	a4,a5
    802031d0:	00100793          	li	a5,1
    802031d4:	06f71663          	bne	a4,a5,80203240 <log_vprintf+0x224>
    802031d8:	eb043783          	ld	a5,-336(s0)
    802031dc:	fef43023          	sd	a5,-32(s0)
    802031e0:	eb043783          	ld	a5,-336(s0)
    802031e4:	fcf43c23          	sd	a5,-40(s0)
    802031e8:	0440006f          	j	8020322c <log_vprintf+0x210>
    802031ec:	fd843783          	ld	a5,-40(s0)
    802031f0:	0007c783          	lbu	a5,0(a5)
    802031f4:	00078713          	mv	a4,a5
    802031f8:	02f00793          	li	a5,47
    802031fc:	00f70c63          	beq	a4,a5,80203214 <log_vprintf+0x1f8>
    80203200:	fd843783          	ld	a5,-40(s0)
    80203204:	0007c783          	lbu	a5,0(a5)
    80203208:	00078713          	mv	a4,a5
    8020320c:	05c00793          	li	a5,92
    80203210:	00f71863          	bne	a4,a5,80203220 <log_vprintf+0x204>
    80203214:	fd843783          	ld	a5,-40(s0)
    80203218:	00178793          	addi	a5,a5,1
    8020321c:	fef43023          	sd	a5,-32(s0)
    80203220:	fd843783          	ld	a5,-40(s0)
    80203224:	00178793          	addi	a5,a5,1
    80203228:	fcf43c23          	sd	a5,-40(s0)
    8020322c:	fd843783          	ld	a5,-40(s0)
    80203230:	0007c783          	lbu	a5,0(a5)
    80203234:	fa079ce3          	bnez	a5,802031ec <log_vprintf+0x1d0>
    80203238:	fe043783          	ld	a5,-32(s0)
    8020323c:	fef43423          	sd	a5,-24(s0)
    80203240:	ecc40713          	addi	a4,s0,-308
    80203244:	ed040793          	addi	a5,s0,-304
    80203248:	fe843683          	ld	a3,-24(s0)
    8020324c:	10000613          	li	a2,256
    80203250:	00070593          	mv	a1,a4
    80203254:	00078513          	mv	a0,a5
    80203258:	938ff0ef          	jal	80202390 <log_append_str>
    8020325c:	ecc40713          	addi	a4,s0,-308
    80203260:	ed040793          	addi	a5,s0,-304
    80203264:	03a00693          	li	a3,58
    80203268:	10000613          	li	a2,256
    8020326c:	00070593          	mv	a1,a4
    80203270:	00078513          	mv	a0,a5
    80203274:	898ff0ef          	jal	8020230c <log_append_char>
    80203278:	eb842683          	lw	a3,-328(s0)
    8020327c:	ecc40593          	addi	a1,s0,-308
    80203280:	ed040513          	addi	a0,s0,-304
    80203284:	02000893          	li	a7,32
    80203288:	00000813          	li	a6,0
    8020328c:	00000793          	li	a5,0
    80203290:	00a00713          	li	a4,10
    80203294:	10000613          	li	a2,256
    80203298:	9a4ff0ef          	jal	8020243c <log_append_uint>
    8020329c:	ecc40713          	addi	a4,s0,-308
    802032a0:	ed040793          	addi	a5,s0,-304
    802032a4:	02000693          	li	a3,32
    802032a8:	10000613          	li	a2,256
    802032ac:	00070593          	mv	a1,a4
    802032b0:	00078513          	mv	a0,a5
    802032b4:	858ff0ef          	jal	8020230c <log_append_char>
    802032b8:	ea843783          	ld	a5,-344(s0)
    802032bc:	04078063          	beqz	a5,802032fc <log_vprintf+0x2e0>
    802032c0:	ecc40713          	addi	a4,s0,-308
    802032c4:	ed040793          	addi	a5,s0,-304
    802032c8:	ea843683          	ld	a3,-344(s0)
    802032cc:	10000613          	li	a2,256
    802032d0:	00070593          	mv	a1,a4
    802032d4:	00078513          	mv	a0,a5
    802032d8:	8b8ff0ef          	jal	80202390 <log_append_str>
    802032dc:	ecc40713          	addi	a4,s0,-308
    802032e0:	ed040793          	addi	a5,s0,-304
    802032e4:	00001697          	auipc	a3,0x1
    802032e8:	a4c68693          	addi	a3,a3,-1460 # 80203d30 <__func__.0+0x188>
    802032ec:	10000613          	li	a2,256
    802032f0:	00070593          	mv	a1,a4
    802032f4:	00078513          	mv	a0,a5
    802032f8:	898ff0ef          	jal	80202390 <log_append_str>
    802032fc:	ecc42783          	lw	a5,-308(s0)
    80203300:	00078713          	mv	a4,a5
    80203304:	ed040793          	addi	a5,s0,-304
    80203308:	00e78533          	add	a0,a5,a4
    8020330c:	ecc42783          	lw	a5,-308(s0)
    80203310:	10000713          	li	a4,256
    80203314:	40f707bb          	subw	a5,a4,a5
    80203318:	0007879b          	sext.w	a5,a5
    8020331c:	e9843683          	ld	a3,-360(s0)
    80203320:	ea043603          	ld	a2,-352(s0)
    80203324:	00078593          	mv	a1,a5
    80203328:	b54ff0ef          	jal	8020267c <log_vformat>
    8020332c:	00050793          	mv	a5,a0
    80203330:	00078713          	mv	a4,a5
    80203334:	ecc42783          	lw	a5,-308(s0)
    80203338:	00f707bb          	addw	a5,a4,a5
    8020333c:	0007879b          	sext.w	a5,a5
    80203340:	ecf42623          	sw	a5,-308(s0)
    80203344:	ecc42703          	lw	a4,-308(s0)
    80203348:	0fe00793          	li	a5,254
    8020334c:	02e7c263          	blt	a5,a4,80203370 <log_vprintf+0x354>
    80203350:	ecc42783          	lw	a5,-308(s0)
    80203354:	0017871b          	addiw	a4,a5,1
    80203358:	0007071b          	sext.w	a4,a4
    8020335c:	ece42623          	sw	a4,-308(s0)
    80203360:	ff078793          	addi	a5,a5,-16
    80203364:	008787b3          	add	a5,a5,s0
    80203368:	00a00713          	li	a4,10
    8020336c:	eee78023          	sb	a4,-288(a5)
    80203370:	ecc42783          	lw	a5,-308(s0)
    80203374:	ff078793          	addi	a5,a5,-16
    80203378:	008787b3          	add	a5,a5,s0
    8020337c:	ee078023          	sb	zero,-288(a5)
    80203380:	ecc42783          	lw	a5,-308(s0)
    80203384:	00078713          	mv	a4,a5
    80203388:	ed040793          	addi	a5,s0,-304
    8020338c:	00070593          	mv	a1,a4
    80203390:	00078513          	mv	a0,a5
    80203394:	b49ff0ef          	jal	80202edc <ring_write>
    80203398:	0000d797          	auipc	a5,0xd
    8020339c:	81878793          	addi	a5,a5,-2024 # 8020fbb0 <s_write_fn>
    802033a0:	0007b783          	ld	a5,0(a5)
    802033a4:	02078463          	beqz	a5,802033cc <log_vprintf+0x3b0>
    802033a8:	0000d797          	auipc	a5,0xd
    802033ac:	80878793          	addi	a5,a5,-2040 # 8020fbb0 <s_write_fn>
    802033b0:	0007b783          	ld	a5,0(a5)
    802033b4:	ecc42703          	lw	a4,-308(s0)
    802033b8:	00070693          	mv	a3,a4
    802033bc:	ed040713          	addi	a4,s0,-304
    802033c0:	00068593          	mv	a1,a3
    802033c4:	00070513          	mv	a0,a4
    802033c8:	000780e7          	jalr	a5
    802033cc:	ecc42783          	lw	a5,-308(s0)
    802033d0:	00078513          	mv	a0,a5
    802033d4:	16813083          	ld	ra,360(sp)
    802033d8:	16013403          	ld	s0,352(sp)
    802033dc:	17010113          	addi	sp,sp,368
    802033e0:	00008067          	ret

00000000802033e4 <log_printf>:
    802033e4:	f9010113          	addi	sp,sp,-112
    802033e8:	04113423          	sd	ra,72(sp)
    802033ec:	04813023          	sd	s0,64(sp)
    802033f0:	05010413          	addi	s0,sp,80
    802033f4:	fcb43823          	sd	a1,-48(s0)
    802033f8:	fcd43423          	sd	a3,-56(s0)
    802033fc:	fce43023          	sd	a4,-64(s0)
    80203400:	00f43423          	sd	a5,8(s0)
    80203404:	01043823          	sd	a6,16(s0)
    80203408:	01143c23          	sd	a7,24(s0)
    8020340c:	00050793          	mv	a5,a0
    80203410:	fcf42e23          	sw	a5,-36(s0)
    80203414:	00060793          	mv	a5,a2
    80203418:	fcf42c23          	sw	a5,-40(s0)
    8020341c:	02040793          	addi	a5,s0,32
    80203420:	faf43c23          	sd	a5,-72(s0)
    80203424:	fb843783          	ld	a5,-72(s0)
    80203428:	fe878793          	addi	a5,a5,-24
    8020342c:	fef43023          	sd	a5,-32(s0)
    80203430:	fe043783          	ld	a5,-32(s0)
    80203434:	fd842603          	lw	a2,-40(s0)
    80203438:	fdc42503          	lw	a0,-36(s0)
    8020343c:	fc043703          	ld	a4,-64(s0)
    80203440:	fc843683          	ld	a3,-56(s0)
    80203444:	fd043583          	ld	a1,-48(s0)
    80203448:	bd5ff0ef          	jal	8020301c <log_vprintf>
    8020344c:	00050793          	mv	a5,a0
    80203450:	fef42623          	sw	a5,-20(s0)
    80203454:	fec42783          	lw	a5,-20(s0)
    80203458:	00078513          	mv	a0,a5
    8020345c:	04813083          	ld	ra,72(sp)
    80203460:	04013403          	ld	s0,64(sp)
    80203464:	07010113          	addi	sp,sp,112
    80203468:	00008067          	ret

000000008020346c <log_ring_size>:
    8020346c:	ff010113          	addi	sp,sp,-16
    80203470:	00113423          	sd	ra,8(sp)
    80203474:	00813023          	sd	s0,0(sp)
    80203478:	01010413          	addi	s0,sp,16
    8020347c:	0000d797          	auipc	a5,0xd
    80203480:	f4c78793          	addi	a5,a5,-180 # 802103c8 <s_ring_size>
    80203484:	0007b783          	ld	a5,0(a5)
    80203488:	00078513          	mv	a0,a5
    8020348c:	00813083          	ld	ra,8(sp)
    80203490:	00013403          	ld	s0,0(sp)
    80203494:	01010113          	addi	sp,sp,16
    80203498:	00008067          	ret

000000008020349c <log_ring_capacity>:
    8020349c:	ff010113          	addi	sp,sp,-16
    802034a0:	00113423          	sd	ra,8(sp)
    802034a4:	00813023          	sd	s0,0(sp)
    802034a8:	01010413          	addi	s0,sp,16
    802034ac:	000017b7          	lui	a5,0x1
    802034b0:	80078793          	addi	a5,a5,-2048 # 800 <TF_SIZE+0x6e8>
    802034b4:	00078513          	mv	a0,a5
    802034b8:	00813083          	ld	ra,8(sp)
    802034bc:	00013403          	ld	s0,0(sp)
    802034c0:	01010113          	addi	sp,sp,16
    802034c4:	00008067          	ret

00000000802034c8 <log_ring_clear>:
    802034c8:	ff010113          	addi	sp,sp,-16
    802034cc:	00113423          	sd	ra,8(sp)
    802034d0:	00813023          	sd	s0,0(sp)
    802034d4:	01010413          	addi	s0,sp,16
    802034d8:	0000d797          	auipc	a5,0xd
    802034dc:	ef078793          	addi	a5,a5,-272 # 802103c8 <s_ring_size>
    802034e0:	0007b023          	sd	zero,0(a5)
    802034e4:	00000013          	nop
    802034e8:	00813083          	ld	ra,8(sp)
    802034ec:	00013403          	ld	s0,0(sp)
    802034f0:	01010113          	addi	sp,sp,16
    802034f4:	00008067          	ret

00000000802034f8 <ring_peek_internal>:
    802034f8:	fc010113          	addi	sp,sp,-64
    802034fc:	02113c23          	sd	ra,56(sp)
    80203500:	02813823          	sd	s0,48(sp)
    80203504:	04010413          	addi	s0,sp,64
    80203508:	fca43423          	sd	a0,-56(s0)
    8020350c:	fcb43023          	sd	a1,-64(s0)
    80203510:	0000d797          	auipc	a5,0xd
    80203514:	eb878793          	addi	a5,a5,-328 # 802103c8 <s_ring_size>
    80203518:	0007b783          	ld	a5,0(a5)
    8020351c:	00078663          	beqz	a5,80203528 <ring_peek_internal+0x30>
    80203520:	fc043783          	ld	a5,-64(s0)
    80203524:	00079663          	bnez	a5,80203530 <ring_peek_internal+0x38>
    80203528:	00000793          	li	a5,0
    8020352c:	0a00006f          	j	802035cc <ring_peek_internal+0xd4>
    80203530:	0000d797          	auipc	a5,0xd
    80203534:	e9878793          	addi	a5,a5,-360 # 802103c8 <s_ring_size>
    80203538:	0007b703          	ld	a4,0(a5)
    8020353c:	fc043783          	ld	a5,-64(s0)
    80203540:	00f77463          	bgeu	a4,a5,80203548 <ring_peek_internal+0x50>
    80203544:	00070793          	mv	a5,a4
    80203548:	fef43023          	sd	a5,-32(s0)
    8020354c:	0000d797          	auipc	a5,0xd
    80203550:	e7478793          	addi	a5,a5,-396 # 802103c0 <s_ring_head>
    80203554:	0007b703          	ld	a4,0(a5)
    80203558:	0000d797          	auipc	a5,0xd
    8020355c:	e7078793          	addi	a5,a5,-400 # 802103c8 <s_ring_size>
    80203560:	0007b783          	ld	a5,0(a5)
    80203564:	40f707b3          	sub	a5,a4,a5
    80203568:	7ff7f793          	andi	a5,a5,2047
    8020356c:	fcf43c23          	sd	a5,-40(s0)
    80203570:	fe043423          	sd	zero,-24(s0)
    80203574:	0480006f          	j	802035bc <ring_peek_internal+0xc4>
    80203578:	fd843703          	ld	a4,-40(s0)
    8020357c:	fe843783          	ld	a5,-24(s0)
    80203580:	00f707b3          	add	a5,a4,a5
    80203584:	7ff7f793          	andi	a5,a5,2047
    80203588:	fcf43823          	sd	a5,-48(s0)
    8020358c:	fc843703          	ld	a4,-56(s0)
    80203590:	fe843783          	ld	a5,-24(s0)
    80203594:	00f707b3          	add	a5,a4,a5
    80203598:	0000c697          	auipc	a3,0xc
    8020359c:	62868693          	addi	a3,a3,1576 # 8020fbc0 <s_ring_buf>
    802035a0:	fd043703          	ld	a4,-48(s0)
    802035a4:	00e68733          	add	a4,a3,a4
    802035a8:	00074703          	lbu	a4,0(a4)
    802035ac:	00e78023          	sb	a4,0(a5)
    802035b0:	fe843783          	ld	a5,-24(s0)
    802035b4:	00178793          	addi	a5,a5,1
    802035b8:	fef43423          	sd	a5,-24(s0)
    802035bc:	fe843703          	ld	a4,-24(s0)
    802035c0:	fe043783          	ld	a5,-32(s0)
    802035c4:	faf76ae3          	bltu	a4,a5,80203578 <ring_peek_internal+0x80>
    802035c8:	fe043783          	ld	a5,-32(s0)
    802035cc:	00078513          	mv	a0,a5
    802035d0:	03813083          	ld	ra,56(sp)
    802035d4:	03013403          	ld	s0,48(sp)
    802035d8:	04010113          	addi	sp,sp,64
    802035dc:	00008067          	ret

00000000802035e0 <log_ring_peek>:
    802035e0:	fd010113          	addi	sp,sp,-48
    802035e4:	02113423          	sd	ra,40(sp)
    802035e8:	02813023          	sd	s0,32(sp)
    802035ec:	03010413          	addi	s0,sp,48
    802035f0:	fca43c23          	sd	a0,-40(s0)
    802035f4:	fcb43823          	sd	a1,-48(s0)
    802035f8:	fd043583          	ld	a1,-48(s0)
    802035fc:	fd843503          	ld	a0,-40(s0)
    80203600:	ef9ff0ef          	jal	802034f8 <ring_peek_internal>
    80203604:	fea43423          	sd	a0,-24(s0)
    80203608:	fe843783          	ld	a5,-24(s0)
    8020360c:	00078513          	mv	a0,a5
    80203610:	02813083          	ld	ra,40(sp)
    80203614:	02013403          	ld	s0,32(sp)
    80203618:	03010113          	addi	sp,sp,48
    8020361c:	00008067          	ret

0000000080203620 <log_ring_read>:
    80203620:	fd010113          	addi	sp,sp,-48
    80203624:	02113423          	sd	ra,40(sp)
    80203628:	02813023          	sd	s0,32(sp)
    8020362c:	03010413          	addi	s0,sp,48
    80203630:	fca43c23          	sd	a0,-40(s0)
    80203634:	fcb43823          	sd	a1,-48(s0)
    80203638:	fd043583          	ld	a1,-48(s0)
    8020363c:	fd843503          	ld	a0,-40(s0)
    80203640:	eb9ff0ef          	jal	802034f8 <ring_peek_internal>
    80203644:	fea43423          	sd	a0,-24(s0)
    80203648:	fe843783          	ld	a5,-24(s0)
    8020364c:	02078263          	beqz	a5,80203670 <log_ring_read+0x50>
    80203650:	0000d797          	auipc	a5,0xd
    80203654:	d7878793          	addi	a5,a5,-648 # 802103c8 <s_ring_size>
    80203658:	0007b703          	ld	a4,0(a5)
    8020365c:	fe843783          	ld	a5,-24(s0)
    80203660:	40f70733          	sub	a4,a4,a5
    80203664:	0000d797          	auipc	a5,0xd
    80203668:	d6478793          	addi	a5,a5,-668 # 802103c8 <s_ring_size>
    8020366c:	00e7b023          	sd	a4,0(a5)
    80203670:	fe843783          	ld	a5,-24(s0)
    80203674:	00078513          	mv	a0,a5
    80203678:	02813083          	ld	ra,40(sp)
    8020367c:	02013403          	ld	s0,32(sp)
    80203680:	03010113          	addi	sp,sp,48
    80203684:	00008067          	ret

0000000080203688 <log_hexdump>:
    80203688:	f3010113          	addi	sp,sp,-208
    8020368c:	0c113423          	sd	ra,200(sp)
    80203690:	0c813023          	sd	s0,192(sp)
    80203694:	0d010413          	addi	s0,sp,208
    80203698:	f6b43023          	sd	a1,-160(s0)
    8020369c:	f4d43c23          	sd	a3,-168(s0)
    802036a0:	f4e43823          	sd	a4,-176(s0)
    802036a4:	f4f43423          	sd	a5,-184(s0)
    802036a8:	f5043023          	sd	a6,-192(s0)
    802036ac:	00050793          	mv	a5,a0
    802036b0:	f6f42623          	sw	a5,-148(s0)
    802036b4:	00060793          	mv	a5,a2
    802036b8:	f6f42423          	sw	a5,-152(s0)
    802036bc:	f6c42783          	lw	a5,-148(s0)
    802036c0:	0007879b          	sext.w	a5,a5
    802036c4:	1e078c63          	beqz	a5,802038bc <log_hexdump+0x234>
    802036c8:	00000797          	auipc	a5,0x0
    802036cc:	70878793          	addi	a5,a5,1800 # 80203dd0 <s_log_level>
    802036d0:	0007a783          	lw	a5,0(a5)
    802036d4:	0007879b          	sext.w	a5,a5
    802036d8:	f6c42703          	lw	a4,-148(s0)
    802036dc:	0007071b          	sext.w	a4,a4
    802036e0:	1ce7ee63          	bltu	a5,a4,802038bc <log_hexdump+0x234>
    802036e4:	f5043783          	ld	a5,-176(s0)
    802036e8:	fcf43423          	sd	a5,-56(s0)
    802036ec:	fe043423          	sd	zero,-24(s0)
    802036f0:	1bc0006f          	j	802038ac <log_hexdump+0x224>
    802036f4:	f4843703          	ld	a4,-184(s0)
    802036f8:	fe843783          	ld	a5,-24(s0)
    802036fc:	40f707b3          	sub	a5,a4,a5
    80203700:	fef43023          	sd	a5,-32(s0)
    80203704:	fe043703          	ld	a4,-32(s0)
    80203708:	01000793          	li	a5,16
    8020370c:	00e7f663          	bgeu	a5,a4,80203718 <log_hexdump+0x90>
    80203710:	01000793          	li	a5,16
    80203714:	fef43023          	sd	a5,-32(s0)
    80203718:	fc042e23          	sw	zero,-36(s0)
    8020371c:	fc043823          	sd	zero,-48(s0)
    80203720:	1000006f          	j	80203820 <log_hexdump+0x198>
    80203724:	fe843703          	ld	a4,-24(s0)
    80203728:	fd043783          	ld	a5,-48(s0)
    8020372c:	00f707b3          	add	a5,a4,a5
    80203730:	fc843703          	ld	a4,-56(s0)
    80203734:	00f707b3          	add	a5,a4,a5
    80203738:	0007c783          	lbu	a5,0(a5)
    8020373c:	fcf403a3          	sb	a5,-57(s0)
    80203740:	fdc42783          	lw	a5,-36(s0)
    80203744:	0007871b          	sext.w	a4,a5
    80203748:	02d00793          	li	a5,45
    8020374c:	08e7cc63          	blt	a5,a4,802037e4 <log_hexdump+0x15c>
    80203750:	fc744783          	lbu	a5,-57(s0)
    80203754:	0047d79b          	srliw	a5,a5,0x4
    80203758:	0ff7f793          	zext.b	a5,a5
    8020375c:	0007879b          	sext.w	a5,a5
    80203760:	00f7f793          	andi	a5,a5,15
    80203764:	0007871b          	sext.w	a4,a5
    80203768:	fdc42783          	lw	a5,-36(s0)
    8020376c:	0017869b          	addiw	a3,a5,1
    80203770:	fcd42e23          	sw	a3,-36(s0)
    80203774:	00000697          	auipc	a3,0x0
    80203778:	5dc68693          	addi	a3,a3,1500 # 80203d50 <hex_digits.0>
    8020377c:	00e68733          	add	a4,a3,a4
    80203780:	00074703          	lbu	a4,0(a4)
    80203784:	ff078793          	addi	a5,a5,-16
    80203788:	008787b3          	add	a5,a5,s0
    8020378c:	fae78023          	sb	a4,-96(a5)
    80203790:	fc744783          	lbu	a5,-57(s0)
    80203794:	0007879b          	sext.w	a5,a5
    80203798:	00f7f793          	andi	a5,a5,15
    8020379c:	0007871b          	sext.w	a4,a5
    802037a0:	fdc42783          	lw	a5,-36(s0)
    802037a4:	0017869b          	addiw	a3,a5,1
    802037a8:	fcd42e23          	sw	a3,-36(s0)
    802037ac:	00000697          	auipc	a3,0x0
    802037b0:	5a468693          	addi	a3,a3,1444 # 80203d50 <hex_digits.0>
    802037b4:	00e68733          	add	a4,a3,a4
    802037b8:	00074703          	lbu	a4,0(a4)
    802037bc:	ff078793          	addi	a5,a5,-16
    802037c0:	008787b3          	add	a5,a5,s0
    802037c4:	fae78023          	sb	a4,-96(a5)
    802037c8:	fdc42783          	lw	a5,-36(s0)
    802037cc:	0017871b          	addiw	a4,a5,1
    802037d0:	fce42e23          	sw	a4,-36(s0)
    802037d4:	ff078793          	addi	a5,a5,-16
    802037d8:	008787b3          	add	a5,a5,s0
    802037dc:	02000713          	li	a4,32
    802037e0:	fae78023          	sb	a4,-96(a5)
    802037e4:	fc744783          	lbu	a5,-57(s0)
    802037e8:	00078513          	mv	a0,a5
    802037ec:	c54ff0ef          	jal	80202c40 <log_isprint>
    802037f0:	00050793          	mv	a5,a0
    802037f4:	00078663          	beqz	a5,80203800 <log_hexdump+0x178>
    802037f8:	fc744783          	lbu	a5,-57(s0)
    802037fc:	0080006f          	j	80203804 <log_hexdump+0x17c>
    80203800:	02e00793          	li	a5,46
    80203804:	fd043703          	ld	a4,-48(s0)
    80203808:	ff070713          	addi	a4,a4,-16
    8020380c:	00870733          	add	a4,a4,s0
    80203810:	f8f70423          	sb	a5,-120(a4)
    80203814:	fd043783          	ld	a5,-48(s0)
    80203818:	00178793          	addi	a5,a5,1
    8020381c:	fcf43823          	sd	a5,-48(s0)
    80203820:	fd043703          	ld	a4,-48(s0)
    80203824:	fe043783          	ld	a5,-32(s0)
    80203828:	eef76ee3          	bltu	a4,a5,80203724 <log_hexdump+0x9c>
    8020382c:	fdc42783          	lw	a5,-36(s0)
    80203830:	ff078793          	addi	a5,a5,-16
    80203834:	008787b3          	add	a5,a5,s0
    80203838:	fa078023          	sb	zero,-96(a5)
    8020383c:	fe043783          	ld	a5,-32(s0)
    80203840:	ff078793          	addi	a5,a5,-16
    80203844:	008787b3          	add	a5,a5,s0
    80203848:	f8078423          	sb	zero,-120(a5)
    8020384c:	f4043783          	ld	a5,-192(s0)
    80203850:	00078663          	beqz	a5,8020385c <log_hexdump+0x1d4>
    80203854:	f4043783          	ld	a5,-192(s0)
    80203858:	00c0006f          	j	80203864 <log_hexdump+0x1dc>
    8020385c:	00000797          	auipc	a5,0x0
    80203860:	4dc78793          	addi	a5,a5,1244 # 80203d38 <__func__.0+0x190>
    80203864:	fe843703          	ld	a4,-24(s0)
    80203868:	0007069b          	sext.w	a3,a4
    8020386c:	f9040593          	addi	a1,s0,-112
    80203870:	f6842603          	lw	a2,-152(s0)
    80203874:	f6c42503          	lw	a0,-148(s0)
    80203878:	f7840713          	addi	a4,s0,-136
    8020387c:	00e13023          	sd	a4,0(sp)
    80203880:	00058893          	mv	a7,a1
    80203884:	00068813          	mv	a6,a3
    80203888:	00000717          	auipc	a4,0x0
    8020388c:	4b870713          	addi	a4,a4,1208 # 80203d40 <__func__.0+0x198>
    80203890:	f5843683          	ld	a3,-168(s0)
    80203894:	f6043583          	ld	a1,-160(s0)
    80203898:	b4dff0ef          	jal	802033e4 <log_printf>
    8020389c:	fe843703          	ld	a4,-24(s0)
    802038a0:	fe043783          	ld	a5,-32(s0)
    802038a4:	00f707b3          	add	a5,a4,a5
    802038a8:	fef43423          	sd	a5,-24(s0)
    802038ac:	fe843703          	ld	a4,-24(s0)
    802038b0:	f4843783          	ld	a5,-184(s0)
    802038b4:	e4f760e3          	bltu	a4,a5,802036f4 <log_hexdump+0x6c>
    802038b8:	0080006f          	j	802038c0 <log_hexdump+0x238>
    802038bc:	00000013          	nop
    802038c0:	0c813083          	ld	ra,200(sp)
    802038c4:	0c013403          	ld	s0,192(sp)
    802038c8:	0d010113          	addi	sp,sp,208
    802038cc:	00008067          	ret

00000000802038d0 <log_platform_writer>:
    802038d0:	fe010113          	addi	sp,sp,-32
    802038d4:	00113c23          	sd	ra,24(sp)
    802038d8:	00813823          	sd	s0,16(sp)
    802038dc:	02010413          	addi	s0,sp,32
    802038e0:	fea43423          	sd	a0,-24(s0)
    802038e4:	feb43023          	sd	a1,-32(s0)
    802038e8:	fe043583          	ld	a1,-32(s0)
    802038ec:	fe843503          	ld	a0,-24(s0)
    802038f0:	ba1fc0ef          	jal	80200490 <platform_write>
    802038f4:	00000013          	nop
    802038f8:	01813083          	ld	ra,24(sp)
    802038fc:	01013403          	ld	s0,16(sp)
    80203900:	02010113          	addi	sp,sp,32
    80203904:	00008067          	ret

0000000080203908 <log_timestamp_ms>:
    80203908:	fe010113          	addi	sp,sp,-32
    8020390c:	00113c23          	sd	ra,24(sp)
    80203910:	00813823          	sd	s0,16(sp)
    80203914:	02010413          	addi	s0,sp,32
    80203918:	c61fc0ef          	jal	80200578 <platform_time_now>
    8020391c:	fea43423          	sd	a0,-24(s0)
    80203920:	fe843703          	ld	a4,-24(s0)
    80203924:	00000797          	auipc	a5,0x0
    80203928:	4a478793          	addi	a5,a5,1188 # 80203dc8 <__func__.0+0x18>
    8020392c:	0007b783          	ld	a5,0(a5)
    80203930:	02f737b3          	mulhu	a5,a4,a5
    80203934:	00b7d793          	srli	a5,a5,0xb
    80203938:	0007879b          	sext.w	a5,a5
    8020393c:	00078513          	mv	a0,a5
    80203940:	01813083          	ld	ra,24(sp)
    80203944:	01013403          	ld	s0,16(sp)
    80203948:	02010113          	addi	sp,sp,32
    8020394c:	00008067          	ret

0000000080203950 <log_init_baremetal>:
    80203950:	ff010113          	addi	sp,sp,-16
    80203954:	00113423          	sd	ra,8(sp)
    80203958:	00813023          	sd	s0,0(sp)
    8020395c:	01010413          	addi	s0,sp,16
    80203960:	00000517          	auipc	a0,0x0
    80203964:	f7050513          	addi	a0,a0,-144 # 802038d0 <log_platform_writer>
    80203968:	b30ff0ef          	jal	80202c98 <log_init>
    8020396c:	00400513          	li	a0,4
    80203970:	b60ff0ef          	jal	80202cd0 <log_set_level>
    80203974:	00100513          	li	a0,1
    80203978:	bc8ff0ef          	jal	80202d40 <log_set_path_mode>
    8020397c:	00000517          	auipc	a0,0x0
    80203980:	f8c50513          	addi	a0,a0,-116 # 80203908 <log_timestamp_ms>
    80203984:	d20ff0ef          	jal	80202ea4 <log_set_timestamp_fn>
    80203988:	b84ff0ef          	jal	80202d0c <log_get_level>
    8020398c:	00050793          	mv	a5,a0
    80203990:	00000717          	auipc	a4,0x0
    80203994:	3d870713          	addi	a4,a4,984 # 80203d68 <hex_digits.0+0x18>
    80203998:	00000697          	auipc	a3,0x0
    8020399c:	41868693          	addi	a3,a3,1048 # 80203db0 <__func__.0>
    802039a0:	02500613          	li	a2,37
    802039a4:	00000597          	auipc	a1,0x0
    802039a8:	3f458593          	addi	a1,a1,1012 # 80203d98 <hex_digits.0+0x48>
    802039ac:	00300513          	li	a0,3
    802039b0:	a35ff0ef          	jal	802033e4 <log_printf>
    802039b4:	00000013          	nop
    802039b8:	00813083          	ld	ra,8(sp)
    802039bc:	00013403          	ld	s0,0(sp)
    802039c0:	01010113          	addi	sp,sp,16
    802039c4:	00008067          	ret
