
kernel.elf:     file format elf64-littleriscv


Disassembly of section .text:

0000000080200000 <_start>:
    80200000:	07e00117          	auipc	sp,0x7e00
    80200004:	00010113          	mv	sp,sp
    80200008:	00004297          	auipc	t0,0x4
    8020000c:	b8828293          	addi	t0,t0,-1144 # 80203b90 <kernel_stack>
    80200010:	00010317          	auipc	t1,0x10
    80200014:	12030313          	addi	t1,t1,288 # 80210130 <__bss_end>
    80200018:	0072f393          	andi	t2,t0,7
    8020001c:	00038c63          	beqz	t2,80200034 <_start+0x34>
    80200020:	0262f263          	bgeu	t0,t1,80200044 <_start+0x44>
    80200024:	00028023          	sb	zero,0(t0)
    80200028:	00128293          	addi	t0,t0,1
    8020002c:	0072f393          	andi	t2,t0,7
    80200030:	fe0398e3          	bnez	t2,80200020 <_start+0x20>
    80200034:	0062f863          	bgeu	t0,t1,80200044 <_start+0x44>
    80200038:	0002b023          	sd	zero,0(t0)
    8020003c:	00828293          	addi	t0,t0,8
    80200040:	ff5ff06f          	j	80200034 <_start+0x34>
    80200044:	2310006f          	j	80200a74 <kernel_main>

0000000080200048 <trap_entry>:
    80200048:	ee010113          	addi	sp,sp,-288 # 87fffee0 <__stack_bottom+0xee0>
    8020004c:	02513023          	sd	t0,32(sp)
    80200050:	00113023          	sd	ra,0(sp)
    80200054:	00313823          	sd	gp,16(sp)
    80200058:	00413c23          	sd	tp,24(sp)
    8020005c:	12010293          	addi	t0,sp,288
    80200060:	00513423          	sd	t0,8(sp)
    80200064:	02613423          	sd	t1,40(sp)
    80200068:	02713823          	sd	t2,48(sp)
    8020006c:	02813c23          	sd	s0,56(sp)
    80200070:	04913023          	sd	s1,64(sp)
    80200074:	04a13423          	sd	a0,72(sp)
    80200078:	04b13823          	sd	a1,80(sp)
    8020007c:	04c13c23          	sd	a2,88(sp)
    80200080:	06d13023          	sd	a3,96(sp)
    80200084:	06e13423          	sd	a4,104(sp)
    80200088:	06f13823          	sd	a5,112(sp)
    8020008c:	07013c23          	sd	a6,120(sp)
    80200090:	09113023          	sd	a7,128(sp)
    80200094:	09213423          	sd	s2,136(sp)
    80200098:	09313823          	sd	s3,144(sp)
    8020009c:	09413c23          	sd	s4,152(sp)
    802000a0:	0b513023          	sd	s5,160(sp)
    802000a4:	0b613423          	sd	s6,168(sp)
    802000a8:	0b713823          	sd	s7,176(sp)
    802000ac:	0b813c23          	sd	s8,184(sp)
    802000b0:	0d913023          	sd	s9,192(sp)
    802000b4:	0da13423          	sd	s10,200(sp)
    802000b8:	0db13823          	sd	s11,208(sp)
    802000bc:	0dc13c23          	sd	t3,216(sp)
    802000c0:	0fd13023          	sd	t4,224(sp)
    802000c4:	0fe13423          	sd	t5,232(sp)
    802000c8:	0ff13823          	sd	t6,240(sp)
    802000cc:	14102373          	csrr	t1,sepc
    802000d0:	0e613c23          	sd	t1,248(sp)
    802000d4:	10002373          	csrr	t1,sstatus
    802000d8:	10613023          	sd	t1,256(sp)
    802000dc:	14202373          	csrr	t1,scause
    802000e0:	10613423          	sd	t1,264(sp)
    802000e4:	14302373          	csrr	t1,stval
    802000e8:	10613823          	sd	t1,272(sp)
    802000ec:	00010413          	mv	s0,sp
    802000f0:	140022f3          	csrr	t0,sscratch
    802000f4:	00028113          	mv	sp,t0
    802000f8:	ff010113          	addi	sp,sp,-16
    802000fc:	00040513          	mv	a0,s0
    80200100:	2ed000ef          	jal	80200bec <trap_entry_c>
    80200104:	00040293          	mv	t0,s0
    80200108:	14151073          	csrw	sepc,a0
    8020010c:	0002b083          	ld	ra,0(t0)
    80200110:	0102b183          	ld	gp,16(t0)
    80200114:	0182b203          	ld	tp,24(t0)
    80200118:	0282b303          	ld	t1,40(t0)
    8020011c:	0302b383          	ld	t2,48(t0)
    80200120:	0382b403          	ld	s0,56(t0)
    80200124:	0402b483          	ld	s1,64(t0)
    80200128:	0482b503          	ld	a0,72(t0)
    8020012c:	0502b583          	ld	a1,80(t0)
    80200130:	0582b603          	ld	a2,88(t0)
    80200134:	0602b683          	ld	a3,96(t0)
    80200138:	0682b703          	ld	a4,104(t0)
    8020013c:	0702b783          	ld	a5,112(t0)
    80200140:	0782b803          	ld	a6,120(t0)
    80200144:	0802b883          	ld	a7,128(t0)
    80200148:	0882b903          	ld	s2,136(t0)
    8020014c:	0902b983          	ld	s3,144(t0)
    80200150:	0982ba03          	ld	s4,152(t0)
    80200154:	0a02ba83          	ld	s5,160(t0)
    80200158:	0a82bb03          	ld	s6,168(t0)
    8020015c:	0b02bb83          	ld	s7,176(t0)
    80200160:	0b82bc03          	ld	s8,184(t0)
    80200164:	0c02bc83          	ld	s9,192(t0)
    80200168:	0c82bd03          	ld	s10,200(t0)
    8020016c:	0d02bd83          	ld	s11,208(t0)
    80200170:	0d82be03          	ld	t3,216(t0)
    80200174:	0e02be83          	ld	t4,224(t0)
    80200178:	0e82bf03          	ld	t5,232(t0)
    8020017c:	0f02bf83          	ld	t6,240(t0)
    80200180:	0082b103          	ld	sp,8(t0)
    80200184:	0202b283          	ld	t0,32(t0)
    80200188:	10200073          	sret

000000008020018c <arch_enable_timer_interrupts>:
    8020018c:	fc010113          	addi	sp,sp,-64
    80200190:	02113c23          	sd	ra,56(sp)
    80200194:	02813823          	sd	s0,48(sp)
    80200198:	04010413          	addi	s0,sp,64
    8020019c:	100027f3          	csrr	a5,sstatus
    802001a0:	fef43423          	sd	a5,-24(s0)
    802001a4:	fe843783          	ld	a5,-24(s0)
    802001a8:	fef43023          	sd	a5,-32(s0)
    802001ac:	fe043783          	ld	a5,-32(s0)
    802001b0:	0027e793          	ori	a5,a5,2
    802001b4:	fef43023          	sd	a5,-32(s0)
    802001b8:	fe043783          	ld	a5,-32(s0)
    802001bc:	fcf43c23          	sd	a5,-40(s0)
    802001c0:	fd843783          	ld	a5,-40(s0)
    802001c4:	10079073          	csrw	sstatus,a5
    802001c8:	104027f3          	csrr	a5,sie
    802001cc:	fcf43823          	sd	a5,-48(s0)
    802001d0:	fd043783          	ld	a5,-48(s0)
    802001d4:	fcf43423          	sd	a5,-56(s0)
    802001d8:	fc843783          	ld	a5,-56(s0)
    802001dc:	0207e793          	ori	a5,a5,32
    802001e0:	fcf43423          	sd	a5,-56(s0)
    802001e4:	fc843783          	ld	a5,-56(s0)
    802001e8:	fcf43023          	sd	a5,-64(s0)
    802001ec:	fc043783          	ld	a5,-64(s0)
    802001f0:	10479073          	csrw	sie,a5
    802001f4:	00000013          	nop
    802001f8:	03813083          	ld	ra,56(sp)
    802001fc:	03013403          	ld	s0,48(sp)
    80200200:	04010113          	addi	sp,sp,64
    80200204:	00008067          	ret

0000000080200208 <arch_drop_to_user>:
    80200208:	00060113          	mv	sp,a2
    8020020c:	14151073          	csrw	sepc,a0
    80200210:	100022f3          	csrr	t0,sstatus
    80200214:	eff00313          	li	t1,-257
    80200218:	0062f2b3          	and	t0,t0,t1
    8020021c:	03000313          	li	t1,48
    80200220:	0062e2b3          	or	t0,t0,t1
    80200224:	ffd00313          	li	t1,-3
    80200228:	0062f2b3          	and	t0,t0,t1
    8020022c:	10029073          	csrw	sstatus,t0
    80200230:	00058513          	mv	a0,a1
    80200234:	10200073          	sret

0000000080200238 <sbi_call>:
    80200238:	fa010113          	addi	sp,sp,-96
    8020023c:	04113c23          	sd	ra,88(sp)
    80200240:	04813823          	sd	s0,80(sp)
    80200244:	06010413          	addi	s0,sp,96
    80200248:	fca43423          	sd	a0,-56(s0)
    8020024c:	fcb43023          	sd	a1,-64(s0)
    80200250:	fac43c23          	sd	a2,-72(s0)
    80200254:	fad43823          	sd	a3,-80(s0)
    80200258:	fae43423          	sd	a4,-88(s0)
    8020025c:	faf43023          	sd	a5,-96(s0)
    80200260:	fb843503          	ld	a0,-72(s0)
    80200264:	fb043583          	ld	a1,-80(s0)
    80200268:	fa843603          	ld	a2,-88(s0)
    8020026c:	fa043683          	ld	a3,-96(s0)
    80200270:	fc043803          	ld	a6,-64(s0)
    80200274:	fc843883          	ld	a7,-56(s0)
    80200278:	00000073          	ecall
    8020027c:	00050793          	mv	a5,a0
    80200280:	fcf43823          	sd	a5,-48(s0)
    80200284:	00058793          	mv	a5,a1
    80200288:	fcf43c23          	sd	a5,-40(s0)
    8020028c:	fd043783          	ld	a5,-48(s0)
    80200290:	fef43023          	sd	a5,-32(s0)
    80200294:	fd843783          	ld	a5,-40(s0)
    80200298:	fef43423          	sd	a5,-24(s0)
    8020029c:	fe043703          	ld	a4,-32(s0)
    802002a0:	fe843783          	ld	a5,-24(s0)
    802002a4:	00070313          	mv	t1,a4
    802002a8:	00078393          	mv	t2,a5
    802002ac:	00030713          	mv	a4,t1
    802002b0:	00038793          	mv	a5,t2
    802002b4:	00070513          	mv	a0,a4
    802002b8:	00078593          	mv	a1,a5
    802002bc:	05813083          	ld	ra,88(sp)
    802002c0:	05013403          	ld	s0,80(sp)
    802002c4:	06010113          	addi	sp,sp,96
    802002c8:	00008067          	ret

00000000802002cc <sbi_set_timer>:
    802002cc:	fe010113          	addi	sp,sp,-32
    802002d0:	00113c23          	sd	ra,24(sp)
    802002d4:	00813823          	sd	s0,16(sp)
    802002d8:	02010413          	addi	s0,sp,32
    802002dc:	fea43423          	sd	a0,-24(s0)
    802002e0:	fe843603          	ld	a2,-24(s0)
    802002e4:	00000793          	li	a5,0
    802002e8:	00000713          	li	a4,0
    802002ec:	00000693          	li	a3,0
    802002f0:	00000593          	li	a1,0
    802002f4:	54495537          	lui	a0,0x54495
    802002f8:	d4550513          	addi	a0,a0,-699 # 54494d45 <STACK_SIZE+0x54493d45>
    802002fc:	f3dff0ef          	jal	80200238 <sbi_call>
    80200300:	00000013          	nop
    80200304:	01813083          	ld	ra,24(sp)
    80200308:	01013403          	ld	s0,16(sp)
    8020030c:	02010113          	addi	sp,sp,32
    80200310:	00008067          	ret

0000000080200314 <platform_put_hex64>:
    80200314:	fc010113          	addi	sp,sp,-64
    80200318:	02113c23          	sd	ra,56(sp)
    8020031c:	02813823          	sd	s0,48(sp)
    80200320:	04010413          	addi	s0,sp,64
    80200324:	fca43423          	sd	a0,-56(s0)
    80200328:	fe042623          	sw	zero,-20(s0)
    8020032c:	fec42783          	lw	a5,-20(s0)
    80200330:	0017871b          	addiw	a4,a5,1
    80200334:	fee42623          	sw	a4,-20(s0)
    80200338:	ff078793          	addi	a5,a5,-16
    8020033c:	008787b3          	add	a5,a5,s0
    80200340:	03000713          	li	a4,48
    80200344:	fee78023          	sb	a4,-32(a5)
    80200348:	fec42783          	lw	a5,-20(s0)
    8020034c:	0017871b          	addiw	a4,a5,1
    80200350:	fee42623          	sw	a4,-20(s0)
    80200354:	ff078793          	addi	a5,a5,-16
    80200358:	008787b3          	add	a5,a5,s0
    8020035c:	07800713          	li	a4,120
    80200360:	fee78023          	sb	a4,-32(a5)
    80200364:	03c00793          	li	a5,60
    80200368:	fef42423          	sw	a5,-24(s0)
    8020036c:	0740006f          	j	802003e0 <platform_put_hex64+0xcc>
    80200370:	fe842783          	lw	a5,-24(s0)
    80200374:	00078713          	mv	a4,a5
    80200378:	fc843783          	ld	a5,-56(s0)
    8020037c:	00e7d7b3          	srl	a5,a5,a4
    80200380:	0ff7f793          	zext.b	a5,a5
    80200384:	00f7f793          	andi	a5,a5,15
    80200388:	fef40323          	sb	a5,-26(s0)
    8020038c:	fe644783          	lbu	a5,-26(s0)
    80200390:	0ff7f713          	zext.b	a4,a5
    80200394:	00900793          	li	a5,9
    80200398:	00e7ea63          	bltu	a5,a4,802003ac <platform_put_hex64+0x98>
    8020039c:	fe644783          	lbu	a5,-26(s0)
    802003a0:	0307879b          	addiw	a5,a5,48
    802003a4:	fef403a3          	sb	a5,-25(s0)
    802003a8:	0100006f          	j	802003b8 <platform_put_hex64+0xa4>
    802003ac:	fe644783          	lbu	a5,-26(s0)
    802003b0:	0577879b          	addiw	a5,a5,87
    802003b4:	fef403a3          	sb	a5,-25(s0)
    802003b8:	fec42783          	lw	a5,-20(s0)
    802003bc:	0017871b          	addiw	a4,a5,1
    802003c0:	fee42623          	sw	a4,-20(s0)
    802003c4:	ff078793          	addi	a5,a5,-16
    802003c8:	008787b3          	add	a5,a5,s0
    802003cc:	fe744703          	lbu	a4,-25(s0)
    802003d0:	fee78023          	sb	a4,-32(a5)
    802003d4:	fe842783          	lw	a5,-24(s0)
    802003d8:	ffc7879b          	addiw	a5,a5,-4
    802003dc:	fef42423          	sw	a5,-24(s0)
    802003e0:	fe842783          	lw	a5,-24(s0)
    802003e4:	0007879b          	sext.w	a5,a5
    802003e8:	f807d4e3          	bgez	a5,80200370 <platform_put_hex64+0x5c>
    802003ec:	fec42783          	lw	a5,-20(s0)
    802003f0:	ff078793          	addi	a5,a5,-16
    802003f4:	008787b3          	add	a5,a5,s0
    802003f8:	fe078023          	sb	zero,-32(a5)
    802003fc:	fec42703          	lw	a4,-20(s0)
    80200400:	fd040793          	addi	a5,s0,-48
    80200404:	00070593          	mv	a1,a4
    80200408:	00078513          	mv	a0,a5
    8020040c:	018000ef          	jal	80200424 <platform_write>
    80200410:	00000013          	nop
    80200414:	03813083          	ld	ra,56(sp)
    80200418:	03013403          	ld	s0,48(sp)
    8020041c:	04010113          	addi	sp,sp,64
    80200420:	00008067          	ret

0000000080200424 <platform_write>:
    80200424:	fe010113          	addi	sp,sp,-32
    80200428:	00113c23          	sd	ra,24(sp)
    8020042c:	00813823          	sd	s0,16(sp)
    80200430:	02010413          	addi	s0,sp,32
    80200434:	fea43423          	sd	a0,-24(s0)
    80200438:	feb43023          	sd	a1,-32(s0)
    8020043c:	fe843783          	ld	a5,-24(s0)
    80200440:	00078e63          	beqz	a5,8020045c <platform_write+0x38>
    80200444:	fe043783          	ld	a5,-32(s0)
    80200448:	00078a63          	beqz	a5,8020045c <platform_write+0x38>
    8020044c:	fe043583          	ld	a1,-32(s0)
    80200450:	fe843503          	ld	a0,-24(s0)
    80200454:	278000ef          	jal	802006cc <uart16550_write>
    80200458:	0080006f          	j	80200460 <platform_write+0x3c>
    8020045c:	00000013          	nop
    80200460:	01813083          	ld	ra,24(sp)
    80200464:	01013403          	ld	s0,16(sp)
    80200468:	02010113          	addi	sp,sp,32
    8020046c:	00008067          	ret

0000000080200470 <platform_putc>:
    80200470:	fe010113          	addi	sp,sp,-32
    80200474:	00113c23          	sd	ra,24(sp)
    80200478:	00813823          	sd	s0,16(sp)
    8020047c:	02010413          	addi	s0,sp,32
    80200480:	00050793          	mv	a5,a0
    80200484:	fef407a3          	sb	a5,-17(s0)
    80200488:	fef44783          	lbu	a5,-17(s0)
    8020048c:	00078513          	mv	a0,a5
    80200490:	1e8000ef          	jal	80200678 <uart16550_putc>
    80200494:	00000013          	nop
    80200498:	01813083          	ld	ra,24(sp)
    8020049c:	01013403          	ld	s0,16(sp)
    802004a0:	02010113          	addi	sp,sp,32
    802004a4:	00008067          	ret

00000000802004a8 <platform_puts>:
    802004a8:	fe010113          	addi	sp,sp,-32
    802004ac:	00113c23          	sd	ra,24(sp)
    802004b0:	00813823          	sd	s0,16(sp)
    802004b4:	02010413          	addi	s0,sp,32
    802004b8:	fea43423          	sd	a0,-24(s0)
    802004bc:	fe843783          	ld	a5,-24(s0)
    802004c0:	00078863          	beqz	a5,802004d0 <platform_puts+0x28>
    802004c4:	fe843503          	ld	a0,-24(s0)
    802004c8:	27c000ef          	jal	80200744 <uart16550_puts>
    802004cc:	0080006f          	j	802004d4 <platform_puts+0x2c>
    802004d0:	00000013          	nop
    802004d4:	01813083          	ld	ra,24(sp)
    802004d8:	01013403          	ld	s0,16(sp)
    802004dc:	02010113          	addi	sp,sp,32
    802004e0:	00008067          	ret

00000000802004e4 <platform_idle>:
    802004e4:	ff010113          	addi	sp,sp,-16
    802004e8:	00113423          	sd	ra,8(sp)
    802004ec:	00813023          	sd	s0,0(sp)
    802004f0:	01010413          	addi	s0,sp,16
    802004f4:	00000013          	nop
    802004f8:	00000013          	nop
    802004fc:	00813083          	ld	ra,8(sp)
    80200500:	00013403          	ld	s0,0(sp)
    80200504:	01010113          	addi	sp,sp,16
    80200508:	00008067          	ret

000000008020050c <platform_time_now>:
    8020050c:	fe010113          	addi	sp,sp,-32
    80200510:	00113c23          	sd	ra,24(sp)
    80200514:	00813823          	sd	s0,16(sp)
    80200518:	02010413          	addi	s0,sp,32
    8020051c:	c01027f3          	rdtime	a5
    80200520:	fef43423          	sd	a5,-24(s0)
    80200524:	fe843783          	ld	a5,-24(s0)
    80200528:	00078513          	mv	a0,a5
    8020052c:	01813083          	ld	ra,24(sp)
    80200530:	01013403          	ld	s0,16(sp)
    80200534:	02010113          	addi	sp,sp,32
    80200538:	00008067          	ret

000000008020053c <platform_timer_start_at>:
    8020053c:	fe010113          	addi	sp,sp,-32
    80200540:	00113c23          	sd	ra,24(sp)
    80200544:	00813823          	sd	s0,16(sp)
    80200548:	02010413          	addi	s0,sp,32
    8020054c:	fea43423          	sd	a0,-24(s0)
    80200550:	fe843503          	ld	a0,-24(s0)
    80200554:	d79ff0ef          	jal	802002cc <sbi_set_timer>
    80200558:	00000013          	nop
    8020055c:	01813083          	ld	ra,24(sp)
    80200560:	01013403          	ld	s0,16(sp)
    80200564:	02010113          	addi	sp,sp,32
    80200568:	00008067          	ret

000000008020056c <platform_timer_start_after>:
    8020056c:	fd010113          	addi	sp,sp,-48
    80200570:	02113423          	sd	ra,40(sp)
    80200574:	02813023          	sd	s0,32(sp)
    80200578:	03010413          	addi	s0,sp,48
    8020057c:	fca43c23          	sd	a0,-40(s0)
    80200580:	f8dff0ef          	jal	8020050c <platform_time_now>
    80200584:	fea43423          	sd	a0,-24(s0)
    80200588:	fe843703          	ld	a4,-24(s0)
    8020058c:	fd843783          	ld	a5,-40(s0)
    80200590:	00f707b3          	add	a5,a4,a5
    80200594:	00078513          	mv	a0,a5
    80200598:	fa5ff0ef          	jal	8020053c <platform_timer_start_at>
    8020059c:	00000013          	nop
    802005a0:	02813083          	ld	ra,40(sp)
    802005a4:	02013403          	ld	s0,32(sp)
    802005a8:	03010113          	addi	sp,sp,48
    802005ac:	00008067          	ret

00000000802005b0 <platform_early_init>:
    802005b0:	ff010113          	addi	sp,sp,-16
    802005b4:	00113423          	sd	ra,8(sp)
    802005b8:	00813023          	sd	s0,0(sp)
    802005bc:	01010413          	addi	s0,sp,16
    802005c0:	094000ef          	jal	80200654 <uart16550_init>
    802005c4:	00000013          	nop
    802005c8:	00813083          	ld	ra,8(sp)
    802005cc:	00013403          	ld	s0,0(sp)
    802005d0:	01010113          	addi	sp,sp,16
    802005d4:	00008067          	ret

00000000802005d8 <uart_lsr_read>:
    802005d8:	fe010113          	addi	sp,sp,-32
    802005dc:	00113c23          	sd	ra,24(sp)
    802005e0:	00813823          	sd	s0,16(sp)
    802005e4:	02010413          	addi	s0,sp,32
    802005e8:	100007b7          	lui	a5,0x10000
    802005ec:	00578793          	addi	a5,a5,5 # 10000005 <STACK_SIZE+0xffff005>
    802005f0:	fef43423          	sd	a5,-24(s0)
    802005f4:	fe843783          	ld	a5,-24(s0)
    802005f8:	0007c783          	lbu	a5,0(a5)
    802005fc:	0ff7f793          	zext.b	a5,a5
    80200600:	00078513          	mv	a0,a5
    80200604:	01813083          	ld	ra,24(sp)
    80200608:	01013403          	ld	s0,16(sp)
    8020060c:	02010113          	addi	sp,sp,32
    80200610:	00008067          	ret

0000000080200614 <uart_thr_write>:
    80200614:	fd010113          	addi	sp,sp,-48
    80200618:	02113423          	sd	ra,40(sp)
    8020061c:	02813023          	sd	s0,32(sp)
    80200620:	03010413          	addi	s0,sp,48
    80200624:	00050793          	mv	a5,a0
    80200628:	fcf40fa3          	sb	a5,-33(s0)
    8020062c:	100007b7          	lui	a5,0x10000
    80200630:	fef43423          	sd	a5,-24(s0)
    80200634:	fe843783          	ld	a5,-24(s0)
    80200638:	fdf44703          	lbu	a4,-33(s0)
    8020063c:	00e78023          	sb	a4,0(a5) # 10000000 <STACK_SIZE+0xffff000>
    80200640:	00000013          	nop
    80200644:	02813083          	ld	ra,40(sp)
    80200648:	02013403          	ld	s0,32(sp)
    8020064c:	03010113          	addi	sp,sp,48
    80200650:	00008067          	ret

0000000080200654 <uart16550_init>:
    80200654:	ff010113          	addi	sp,sp,-16
    80200658:	00113423          	sd	ra,8(sp)
    8020065c:	00813023          	sd	s0,0(sp)
    80200660:	01010413          	addi	s0,sp,16
    80200664:	00000013          	nop
    80200668:	00813083          	ld	ra,8(sp)
    8020066c:	00013403          	ld	s0,0(sp)
    80200670:	01010113          	addi	sp,sp,16
    80200674:	00008067          	ret

0000000080200678 <uart16550_putc>:
    80200678:	fe010113          	addi	sp,sp,-32
    8020067c:	00113c23          	sd	ra,24(sp)
    80200680:	00813823          	sd	s0,16(sp)
    80200684:	02010413          	addi	s0,sp,32
    80200688:	00050793          	mv	a5,a0
    8020068c:	fef407a3          	sb	a5,-17(s0)
    80200690:	00000013          	nop
    80200694:	f45ff0ef          	jal	802005d8 <uart_lsr_read>
    80200698:	00050793          	mv	a5,a0
    8020069c:	0007879b          	sext.w	a5,a5
    802006a0:	0207f793          	andi	a5,a5,32
    802006a4:	0007879b          	sext.w	a5,a5
    802006a8:	fe0786e3          	beqz	a5,80200694 <uart16550_putc+0x1c>
    802006ac:	fef44783          	lbu	a5,-17(s0)
    802006b0:	00078513          	mv	a0,a5
    802006b4:	f61ff0ef          	jal	80200614 <uart_thr_write>
    802006b8:	00000013          	nop
    802006bc:	01813083          	ld	ra,24(sp)
    802006c0:	01013403          	ld	s0,16(sp)
    802006c4:	02010113          	addi	sp,sp,32
    802006c8:	00008067          	ret

00000000802006cc <uart16550_write>:
    802006cc:	fd010113          	addi	sp,sp,-48
    802006d0:	02113423          	sd	ra,40(sp)
    802006d4:	02813023          	sd	s0,32(sp)
    802006d8:	03010413          	addi	s0,sp,48
    802006dc:	fca43c23          	sd	a0,-40(s0)
    802006e0:	fcb43823          	sd	a1,-48(s0)
    802006e4:	fd843783          	ld	a5,-40(s0)
    802006e8:	04078463          	beqz	a5,80200730 <uart16550_write+0x64>
    802006ec:	fd043783          	ld	a5,-48(s0)
    802006f0:	04078063          	beqz	a5,80200730 <uart16550_write+0x64>
    802006f4:	fe043423          	sd	zero,-24(s0)
    802006f8:	0280006f          	j	80200720 <uart16550_write+0x54>
    802006fc:	fd843703          	ld	a4,-40(s0)
    80200700:	fe843783          	ld	a5,-24(s0)
    80200704:	00f707b3          	add	a5,a4,a5
    80200708:	0007c783          	lbu	a5,0(a5)
    8020070c:	00078513          	mv	a0,a5
    80200710:	f69ff0ef          	jal	80200678 <uart16550_putc>
    80200714:	fe843783          	ld	a5,-24(s0)
    80200718:	00178793          	addi	a5,a5,1
    8020071c:	fef43423          	sd	a5,-24(s0)
    80200720:	fe843703          	ld	a4,-24(s0)
    80200724:	fd043783          	ld	a5,-48(s0)
    80200728:	fcf76ae3          	bltu	a4,a5,802006fc <uart16550_write+0x30>
    8020072c:	0080006f          	j	80200734 <uart16550_write+0x68>
    80200730:	00000013          	nop
    80200734:	02813083          	ld	ra,40(sp)
    80200738:	02013403          	ld	s0,32(sp)
    8020073c:	03010113          	addi	sp,sp,48
    80200740:	00008067          	ret

0000000080200744 <uart16550_puts>:
    80200744:	fe010113          	addi	sp,sp,-32
    80200748:	00113c23          	sd	ra,24(sp)
    8020074c:	00813823          	sd	s0,16(sp)
    80200750:	02010413          	addi	s0,sp,32
    80200754:	fea43423          	sd	a0,-24(s0)
    80200758:	fe843783          	ld	a5,-24(s0)
    8020075c:	04078663          	beqz	a5,802007a8 <uart16550_puts+0x64>
    80200760:	0380006f          	j	80200798 <uart16550_puts+0x54>
    80200764:	fe843783          	ld	a5,-24(s0)
    80200768:	0007c783          	lbu	a5,0(a5)
    8020076c:	00078713          	mv	a4,a5
    80200770:	00a00793          	li	a5,10
    80200774:	00f71663          	bne	a4,a5,80200780 <uart16550_puts+0x3c>
    80200778:	00d00513          	li	a0,13
    8020077c:	efdff0ef          	jal	80200678 <uart16550_putc>
    80200780:	fe843783          	ld	a5,-24(s0)
    80200784:	00178713          	addi	a4,a5,1
    80200788:	fee43423          	sd	a4,-24(s0)
    8020078c:	0007c783          	lbu	a5,0(a5)
    80200790:	00078513          	mv	a0,a5
    80200794:	ee5ff0ef          	jal	80200678 <uart16550_putc>
    80200798:	fe843783          	ld	a5,-24(s0)
    8020079c:	0007c783          	lbu	a5,0(a5)
    802007a0:	fc0792e3          	bnez	a5,80200764 <uart16550_puts+0x20>
    802007a4:	0080006f          	j	802007ac <uart16550_puts+0x68>
    802007a8:	00000013          	nop
    802007ac:	01813083          	ld	ra,24(sp)
    802007b0:	01013403          	ld	s0,16(sp)
    802007b4:	02010113          	addi	sp,sp,32
    802007b8:	00008067          	ret

00000000802007bc <uart16550_put_hex64>:
    802007bc:	fd010113          	addi	sp,sp,-48
    802007c0:	02113423          	sd	ra,40(sp)
    802007c4:	02813023          	sd	s0,32(sp)
    802007c8:	03010413          	addi	s0,sp,48
    802007cc:	fca43c23          	sd	a0,-40(s0)
    802007d0:	03c00793          	li	a5,60
    802007d4:	fef42623          	sw	a5,-20(s0)
    802007d8:	0640006f          	j	8020083c <uart16550_put_hex64+0x80>
    802007dc:	fec42783          	lw	a5,-20(s0)
    802007e0:	00078713          	mv	a4,a5
    802007e4:	fd843783          	ld	a5,-40(s0)
    802007e8:	00e7d7b3          	srl	a5,a5,a4
    802007ec:	0ff7f793          	zext.b	a5,a5
    802007f0:	00f7f793          	andi	a5,a5,15
    802007f4:	fef40523          	sb	a5,-22(s0)
    802007f8:	fea44783          	lbu	a5,-22(s0)
    802007fc:	0ff7f713          	zext.b	a4,a5
    80200800:	00900793          	li	a5,9
    80200804:	00e7ea63          	bltu	a5,a4,80200818 <uart16550_put_hex64+0x5c>
    80200808:	fea44783          	lbu	a5,-22(s0)
    8020080c:	0307879b          	addiw	a5,a5,48
    80200810:	fef405a3          	sb	a5,-21(s0)
    80200814:	0100006f          	j	80200824 <uart16550_put_hex64+0x68>
    80200818:	fea44783          	lbu	a5,-22(s0)
    8020081c:	0577879b          	addiw	a5,a5,87
    80200820:	fef405a3          	sb	a5,-21(s0)
    80200824:	feb44783          	lbu	a5,-21(s0)
    80200828:	00078513          	mv	a0,a5
    8020082c:	e4dff0ef          	jal	80200678 <uart16550_putc>
    80200830:	fec42783          	lw	a5,-20(s0)
    80200834:	ffc7879b          	addiw	a5,a5,-4
    80200838:	fef42623          	sw	a5,-20(s0)
    8020083c:	fec42783          	lw	a5,-20(s0)
    80200840:	0007879b          	sext.w	a5,a5
    80200844:	f807dce3          	bgez	a5,802007dc <uart16550_put_hex64+0x20>
    80200848:	00000013          	nop
    8020084c:	00000013          	nop
    80200850:	02813083          	ld	ra,40(sp)
    80200854:	02013403          	ld	s0,32(sp)
    80200858:	03010113          	addi	sp,sp,48
    8020085c:	00008067          	ret

0000000080200860 <print_thread_prefix>:
    80200860:	fe010113          	addi	sp,sp,-32
    80200864:	00113c23          	sd	ra,24(sp)
    80200868:	00813823          	sd	s0,16(sp)
    8020086c:	02010413          	addi	s0,sp,32
    80200870:	614010ef          	jal	80201e84 <thread_current>
    80200874:	00050793          	mv	a5,a0
    80200878:	fef42623          	sw	a5,-20(s0)
    8020087c:	fec42783          	lw	a5,-20(s0)
    80200880:	00078513          	mv	a0,a5
    80200884:	630010ef          	jal	80201eb4 <thread_name>
    80200888:	fea43023          	sd	a0,-32(s0)
    8020088c:	05b00513          	li	a0,91
    80200890:	be1ff0ef          	jal	80200470 <platform_putc>
    80200894:	fec42783          	lw	a5,-20(s0)
    80200898:	00078513          	mv	a0,a5
    8020089c:	a79ff0ef          	jal	80200314 <platform_put_hex64>
    802008a0:	03a00513          	li	a0,58
    802008a4:	bcdff0ef          	jal	80200470 <platform_putc>
    802008a8:	fe043503          	ld	a0,-32(s0)
    802008ac:	bfdff0ef          	jal	802004a8 <platform_puts>
    802008b0:	00003517          	auipc	a0,0x3
    802008b4:	ed850513          	addi	a0,a0,-296 # 80203788 <log_init_baremetal+0x7c>
    802008b8:	bf1ff0ef          	jal	802004a8 <platform_puts>
    802008bc:	00000013          	nop
    802008c0:	01813083          	ld	ra,24(sp)
    802008c4:	01013403          	ld	s0,16(sp)
    802008c8:	02010113          	addi	sp,sp,32
    802008cc:	00008067          	ret

00000000802008d0 <worker_thread>:
    802008d0:	fd010113          	addi	sp,sp,-48
    802008d4:	02113423          	sd	ra,40(sp)
    802008d8:	02813023          	sd	s0,32(sp)
    802008dc:	03010413          	addi	s0,sp,48
    802008e0:	fca43c23          	sd	a0,-40(s0)
    802008e4:	fd843783          	ld	a5,-40(s0)
    802008e8:	fef42423          	sw	a5,-24(s0)
    802008ec:	f75ff0ef          	jal	80200860 <print_thread_prefix>
    802008f0:	00003517          	auipc	a0,0x3
    802008f4:	ea050513          	addi	a0,a0,-352 # 80203790 <log_init_baremetal+0x84>
    802008f8:	bb1ff0ef          	jal	802004a8 <platform_puts>
    802008fc:	fe042623          	sw	zero,-20(s0)
    80200900:	0280006f          	j	80200928 <worker_thread+0x58>
    80200904:	f5dff0ef          	jal	80200860 <print_thread_prefix>
    80200908:	00003517          	auipc	a0,0x3
    8020090c:	eb850513          	addi	a0,a0,-328 # 802037c0 <log_init_baremetal+0xb4>
    80200910:	b99ff0ef          	jal	802004a8 <platform_puts>
    80200914:	00500513          	li	a0,5
    80200918:	6a4010ef          	jal	80201fbc <thread_sleep>
    8020091c:	fec42783          	lw	a5,-20(s0)
    80200920:	0017879b          	addiw	a5,a5,1
    80200924:	fef42623          	sw	a5,-20(s0)
    80200928:	fec42783          	lw	a5,-20(s0)
    8020092c:	00078713          	mv	a4,a5
    80200930:	fe842783          	lw	a5,-24(s0)
    80200934:	0007071b          	sext.w	a4,a4
    80200938:	0007879b          	sext.w	a5,a5
    8020093c:	fcf744e3          	blt	a4,a5,80200904 <worker_thread+0x34>
    80200940:	f21ff0ef          	jal	80200860 <print_thread_prefix>
    80200944:	00003517          	auipc	a0,0x3
    80200948:	e9450513          	addi	a0,a0,-364 # 802037d8 <log_init_baremetal+0xcc>
    8020094c:	b5dff0ef          	jal	802004a8 <platform_puts>
    80200950:	fe842783          	lw	a5,-24(s0)
    80200954:	00078513          	mv	a0,a5
    80200958:	698010ef          	jal	80201ff0 <thread_exit>
    8020095c:	00000013          	nop
    80200960:	02813083          	ld	ra,40(sp)
    80200964:	02013403          	ld	s0,32(sp)
    80200968:	03010113          	addi	sp,sp,48
    8020096c:	00008067          	ret

0000000080200970 <user_main>:
    80200970:	fd010113          	addi	sp,sp,-48
    80200974:	02113423          	sd	ra,40(sp)
    80200978:	02813023          	sd	s0,32(sp)
    8020097c:	03010413          	addi	s0,sp,48
    80200980:	fca43c23          	sd	a0,-40(s0)
    80200984:	eddff0ef          	jal	80200860 <print_thread_prefix>
    80200988:	00003517          	auipc	a0,0x3
    8020098c:	e8050513          	addi	a0,a0,-384 # 80203808 <log_init_baremetal+0xfc>
    80200990:	b19ff0ef          	jal	802004a8 <platform_puts>
    80200994:	00003617          	auipc	a2,0x3
    80200998:	e9460613          	addi	a2,a2,-364 # 80203828 <log_init_baremetal+0x11c>
    8020099c:	00300593          	li	a1,3
    802009a0:	00000517          	auipc	a0,0x0
    802009a4:	f3050513          	addi	a0,a0,-208 # 802008d0 <worker_thread>
    802009a8:	6c8010ef          	jal	80202070 <thread_create>
    802009ac:	00050793          	mv	a5,a0
    802009b0:	fef42623          	sw	a5,-20(s0)
    802009b4:	fec42783          	lw	a5,-20(s0)
    802009b8:	0007879b          	sext.w	a5,a5
    802009bc:	0007d863          	bgez	a5,802009cc <user_main+0x5c>
    802009c0:	00003517          	auipc	a0,0x3
    802009c4:	e7050513          	addi	a0,a0,-400 # 80203830 <log_init_baremetal+0x124>
    802009c8:	ae1ff0ef          	jal	802004a8 <platform_puts>
    802009cc:	fec42783          	lw	a5,-20(s0)
    802009d0:	0007879b          	sext.w	a5,a5
    802009d4:	0607ca63          	bltz	a5,80200a48 <user_main+0xd8>
    802009d8:	fe042223          	sw	zero,-28(s0)
    802009dc:	e85ff0ef          	jal	80200860 <print_thread_prefix>
    802009e0:	00003517          	auipc	a0,0x3
    802009e4:	e7050513          	addi	a0,a0,-400 # 80203850 <log_init_baremetal+0x144>
    802009e8:	ac1ff0ef          	jal	802004a8 <platform_puts>
    802009ec:	fe440713          	addi	a4,s0,-28
    802009f0:	fec42783          	lw	a5,-20(s0)
    802009f4:	00070593          	mv	a1,a4
    802009f8:	00078513          	mv	a0,a5
    802009fc:	624010ef          	jal	80202020 <thread_join>
    80200a00:	00050793          	mv	a5,a0
    80200a04:	fef42423          	sw	a5,-24(s0)
    80200a08:	e59ff0ef          	jal	80200860 <print_thread_prefix>
    80200a0c:	00003517          	auipc	a0,0x3
    80200a10:	e6450513          	addi	a0,a0,-412 # 80203870 <log_init_baremetal+0x164>
    80200a14:	a95ff0ef          	jal	802004a8 <platform_puts>
    80200a18:	fe842783          	lw	a5,-24(s0)
    80200a1c:	00078513          	mv	a0,a5
    80200a20:	8f5ff0ef          	jal	80200314 <platform_put_hex64>
    80200a24:	00003517          	auipc	a0,0x3
    80200a28:	e7450513          	addi	a0,a0,-396 # 80203898 <log_init_baremetal+0x18c>
    80200a2c:	a7dff0ef          	jal	802004a8 <platform_puts>
    80200a30:	fe442783          	lw	a5,-28(s0)
    80200a34:	00078513          	mv	a0,a5
    80200a38:	8ddff0ef          	jal	80200314 <platform_put_hex64>
    80200a3c:	00003517          	auipc	a0,0x3
    80200a40:	e6c50513          	addi	a0,a0,-404 # 802038a8 <log_init_baremetal+0x19c>
    80200a44:	a65ff0ef          	jal	802004a8 <platform_puts>
    80200a48:	009897b7          	lui	a5,0x989
    80200a4c:	68078513          	addi	a0,a5,1664 # 989680 <STACK_SIZE+0x988680>
    80200a50:	b1dff0ef          	jal	8020056c <platform_timer_start_after>
    80200a54:	e0dff0ef          	jal	80200860 <print_thread_prefix>
    80200a58:	00003517          	auipc	a0,0x3
    80200a5c:	e5850513          	addi	a0,a0,-424 # 802038b0 <log_init_baremetal+0x1a4>
    80200a60:	a49ff0ef          	jal	802004a8 <platform_puts>
    80200a64:	00a00513          	li	a0,10
    80200a68:	554010ef          	jal	80201fbc <thread_sleep>
    80200a6c:	00000013          	nop
    80200a70:	fe5ff06f          	j	80200a54 <user_main+0xe4>

0000000080200a74 <kernel_main>:
    80200a74:	fe010113          	addi	sp,sp,-32
    80200a78:	00113c23          	sd	ra,24(sp)
    80200a7c:	00813823          	sd	s0,16(sp)
    80200a80:	02010413          	addi	s0,sp,32
    80200a84:	fea43423          	sd	a0,-24(s0)
    80200a88:	feb43023          	sd	a1,-32(s0)
    80200a8c:	00003517          	auipc	a0,0x3
    80200a90:	e3c50513          	addi	a0,a0,-452 # 802038c8 <log_init_baremetal+0x1bc>
    80200a94:	a15ff0ef          	jal	802004a8 <platform_puts>
    80200a98:	b19ff0ef          	jal	802005b0 <platform_early_init>
    80200a9c:	471020ef          	jal	8020370c <log_init_baremetal>
    80200aa0:	0b8000ef          	jal	80200b58 <trap_init>
    80200aa4:	ee8ff0ef          	jal	8020018c <arch_enable_timer_interrupts>
    80200aa8:	125000ef          	jal	802013cc <threads_init>
    80200aac:	009897b7          	lui	a5,0x989
    80200ab0:	68078513          	addi	a0,a5,1664 # 989680 <STACK_SIZE+0x988680>
    80200ab4:	ab9ff0ef          	jal	8020056c <platform_timer_start_after>
    80200ab8:	00000593          	li	a1,0
    80200abc:	00000517          	auipc	a0,0x0
    80200ac0:	eb450513          	addi	a0,a0,-332 # 80200970 <user_main>
    80200ac4:	4b1000ef          	jal	80201774 <threads_start>
    80200ac8:	d99ff0ef          	jal	80200860 <print_thread_prefix>
    80200acc:	00003517          	auipc	a0,0x3
    80200ad0:	de450513          	addi	a0,a0,-540 # 802038b0 <log_init_baremetal+0x1a4>
    80200ad4:	9d5ff0ef          	jal	802004a8 <platform_puts>
    80200ad8:	00a00513          	li	a0,10
    80200adc:	4e0010ef          	jal	80201fbc <thread_sleep>
    80200ae0:	00000013          	nop
    80200ae4:	fe5ff06f          	j	80200ac8 <kernel_main+0x54>

0000000080200ae8 <scause_is_interrupt>:
    80200ae8:	fe010113          	addi	sp,sp,-32
    80200aec:	00113c23          	sd	ra,24(sp)
    80200af0:	00813823          	sd	s0,16(sp)
    80200af4:	02010413          	addi	s0,sp,32
    80200af8:	fea43423          	sd	a0,-24(s0)
    80200afc:	fe843783          	ld	a5,-24(s0)
    80200b00:	03f7d793          	srli	a5,a5,0x3f
    80200b04:	0ff7f793          	zext.b	a5,a5
    80200b08:	0007879b          	sext.w	a5,a5
    80200b0c:	00078513          	mv	a0,a5
    80200b10:	01813083          	ld	ra,24(sp)
    80200b14:	01013403          	ld	s0,16(sp)
    80200b18:	02010113          	addi	sp,sp,32
    80200b1c:	00008067          	ret

0000000080200b20 <scause_code>:
    80200b20:	fe010113          	addi	sp,sp,-32
    80200b24:	00113c23          	sd	ra,24(sp)
    80200b28:	00813823          	sd	s0,16(sp)
    80200b2c:	02010413          	addi	s0,sp,32
    80200b30:	fea43423          	sd	a0,-24(s0)
    80200b34:	fe843703          	ld	a4,-24(s0)
    80200b38:	fff00793          	li	a5,-1
    80200b3c:	0017d793          	srli	a5,a5,0x1
    80200b40:	00f777b3          	and	a5,a4,a5
    80200b44:	00078513          	mv	a0,a5
    80200b48:	01813083          	ld	ra,24(sp)
    80200b4c:	01013403          	ld	s0,16(sp)
    80200b50:	02010113          	addi	sp,sp,32
    80200b54:	00008067          	ret

0000000080200b58 <trap_init>:
    80200b58:	fc010113          	addi	sp,sp,-64
    80200b5c:	02113c23          	sd	ra,56(sp)
    80200b60:	02813823          	sd	s0,48(sp)
    80200b64:	04010413          	addi	s0,sp,64
    80200b68:	fffff797          	auipc	a5,0xfffff
    80200b6c:	4e078793          	addi	a5,a5,1248 # 80200048 <trap_entry>
    80200b70:	fef43423          	sd	a5,-24(s0)
    80200b74:	fe843783          	ld	a5,-24(s0)
    80200b78:	ffc7f793          	andi	a5,a5,-4
    80200b7c:	fef43423          	sd	a5,-24(s0)
    80200b80:	fe843783          	ld	a5,-24(s0)
    80200b84:	fef43023          	sd	a5,-32(s0)
    80200b88:	fe043783          	ld	a5,-32(s0)
    80200b8c:	10579073          	csrw	stvec,a5
    80200b90:	00004797          	auipc	a5,0x4
    80200b94:	00078793          	mv	a5,a5
    80200b98:	fcf43c23          	sd	a5,-40(s0)
    80200b9c:	fd843783          	ld	a5,-40(s0)
    80200ba0:	ff07f793          	andi	a5,a5,-16
    80200ba4:	fcf43c23          	sd	a5,-40(s0)
    80200ba8:	fd843783          	ld	a5,-40(s0)
    80200bac:	fcf43823          	sd	a5,-48(s0)
    80200bb0:	fd043783          	ld	a5,-48(s0)
    80200bb4:	14079073          	csrw	sscratch,a5
    80200bb8:	00200793          	li	a5,2
    80200bbc:	fcf43423          	sd	a5,-56(s0)
    80200bc0:	fc843783          	ld	a5,-56(s0)
    80200bc4:	1007b073          	csrc	sstatus,a5
    80200bc8:	22200793          	li	a5,546
    80200bcc:	fcf43023          	sd	a5,-64(s0)
    80200bd0:	fc043783          	ld	a5,-64(s0)
    80200bd4:	1047b073          	csrc	sie,a5
    80200bd8:	00000013          	nop
    80200bdc:	03813083          	ld	ra,56(sp)
    80200be0:	03013403          	ld	s0,48(sp)
    80200be4:	04010113          	addi	sp,sp,64
    80200be8:	00008067          	ret

0000000080200bec <trap_entry_c>:
    80200bec:	fa010113          	addi	sp,sp,-96
    80200bf0:	04113c23          	sd	ra,88(sp)
    80200bf4:	04813823          	sd	s0,80(sp)
    80200bf8:	06010413          	addi	s0,sp,96
    80200bfc:	faa43423          	sd	a0,-88(s0)
    80200c00:	fa843783          	ld	a5,-88(s0)
    80200c04:	1087b783          	ld	a5,264(a5) # 80204c98 <g_threads+0x108>
    80200c08:	fef43423          	sd	a5,-24(s0)
    80200c0c:	fa843783          	ld	a5,-88(s0)
    80200c10:	1107b783          	ld	a5,272(a5)
    80200c14:	fef43023          	sd	a5,-32(s0)
    80200c18:	fa843783          	ld	a5,-88(s0)
    80200c1c:	0f87b783          	ld	a5,248(a5)
    80200c20:	fcf43c23          	sd	a5,-40(s0)
    80200c24:	fa843783          	ld	a5,-88(s0)
    80200c28:	1007b783          	ld	a5,256(a5)
    80200c2c:	fcf43823          	sd	a5,-48(s0)
    80200c30:	fe843503          	ld	a0,-24(s0)
    80200c34:	eb5ff0ef          	jal	80200ae8 <scause_is_interrupt>
    80200c38:	00050793          	mv	a5,a0
    80200c3c:	fcf42623          	sw	a5,-52(s0)
    80200c40:	fe843503          	ld	a0,-24(s0)
    80200c44:	eddff0ef          	jal	80200b20 <scause_code>
    80200c48:	fca43023          	sd	a0,-64(s0)
    80200c4c:	fcc42783          	lw	a5,-52(s0)
    80200c50:	0007879b          	sext.w	a5,a5
    80200c54:	02078a63          	beqz	a5,80200c88 <trap_entry_c+0x9c>
    80200c58:	fc043703          	ld	a4,-64(s0)
    80200c5c:	00500793          	li	a5,5
    80200c60:	02f71463          	bne	a4,a5,80200c88 <trap_entry_c+0x9c>
    80200c64:	401000ef          	jal	80201864 <threads_tick>
    80200c68:	009897b7          	lui	a5,0x989
    80200c6c:	68078513          	addi	a0,a5,1664 # 989680 <STACK_SIZE+0x988680>
    80200c70:	8fdff0ef          	jal	8020056c <platform_timer_start_after>
    80200c74:	fa843503          	ld	a0,-88(s0)
    80200c78:	4ad000ef          	jal	80201924 <schedule>
    80200c7c:	fa843783          	ld	a5,-88(s0)
    80200c80:	0f87b783          	ld	a5,248(a5)
    80200c84:	2a80006f          	j	80200f2c <trap_entry_c+0x340>
    80200c88:	fcc42783          	lw	a5,-52(s0)
    80200c8c:	0007879b          	sext.w	a5,a5
    80200c90:	16079c63          	bnez	a5,80200e08 <trap_entry_c+0x21c>
    80200c94:	fc043703          	ld	a4,-64(s0)
    80200c98:	00800793          	li	a5,8
    80200c9c:	16f71663          	bne	a4,a5,80200e08 <trap_entry_c+0x21c>
    80200ca0:	fa843783          	ld	a5,-88(s0)
    80200ca4:	0487b783          	ld	a5,72(a5)
    80200ca8:	faf43c23          	sd	a5,-72(s0)
    80200cac:	fb843703          	ld	a4,-72(s0)
    80200cb0:	00100793          	li	a5,1
    80200cb4:	02f71a63          	bne	a4,a5,80200ce8 <trap_entry_c+0xfc>
    80200cb8:	fd843783          	ld	a5,-40(s0)
    80200cbc:	00478713          	addi	a4,a5,4
    80200cc0:	fa843783          	ld	a5,-88(s0)
    80200cc4:	0ee7bc23          	sd	a4,248(a5)
    80200cc8:	fa843783          	ld	a5,-88(s0)
    80200ccc:	0507b783          	ld	a5,80(a5)
    80200cd0:	00078593          	mv	a1,a5
    80200cd4:	fa843503          	ld	a0,-88(s0)
    80200cd8:	60d000ef          	jal	80201ae4 <thread_sys_sleep>
    80200cdc:	fa843783          	ld	a5,-88(s0)
    80200ce0:	0f87b783          	ld	a5,248(a5)
    80200ce4:	2480006f          	j	80200f2c <trap_entry_c+0x340>
    80200ce8:	fb843703          	ld	a4,-72(s0)
    80200cec:	00200793          	li	a5,2
    80200cf0:	02f71c63          	bne	a4,a5,80200d28 <trap_entry_c+0x13c>
    80200cf4:	fd843783          	ld	a5,-40(s0)
    80200cf8:	00478713          	addi	a4,a5,4
    80200cfc:	fa843783          	ld	a5,-88(s0)
    80200d00:	0ee7bc23          	sd	a4,248(a5)
    80200d04:	fa843783          	ld	a5,-88(s0)
    80200d08:	0507b783          	ld	a5,80(a5)
    80200d0c:	0007879b          	sext.w	a5,a5
    80200d10:	00078593          	mv	a1,a5
    80200d14:	fa843503          	ld	a0,-88(s0)
    80200d18:	6b5000ef          	jal	80201bcc <thread_sys_exit>
    80200d1c:	fa843783          	ld	a5,-88(s0)
    80200d20:	0f87b783          	ld	a5,248(a5)
    80200d24:	2080006f          	j	80200f2c <trap_entry_c+0x340>
    80200d28:	fb843703          	ld	a4,-72(s0)
    80200d2c:	00300793          	li	a5,3
    80200d30:	04f71263          	bne	a4,a5,80200d74 <trap_entry_c+0x188>
    80200d34:	fd843783          	ld	a5,-40(s0)
    80200d38:	00478713          	addi	a4,a5,4
    80200d3c:	fa843783          	ld	a5,-88(s0)
    80200d40:	0ee7bc23          	sd	a4,248(a5)
    80200d44:	fa843783          	ld	a5,-88(s0)
    80200d48:	0507b783          	ld	a5,80(a5)
    80200d4c:	0007871b          	sext.w	a4,a5
    80200d50:	fa843783          	ld	a5,-88(s0)
    80200d54:	0587b783          	ld	a5,88(a5)
    80200d58:	00078613          	mv	a2,a5
    80200d5c:	00070593          	mv	a1,a4
    80200d60:	fa843503          	ld	a0,-88(s0)
    80200d64:	785000ef          	jal	80201ce8 <thread_sys_join>
    80200d68:	fa843783          	ld	a5,-88(s0)
    80200d6c:	0f87b783          	ld	a5,248(a5)
    80200d70:	1bc0006f          	j	80200f2c <trap_entry_c+0x340>
    80200d74:	fb843703          	ld	a4,-72(s0)
    80200d78:	00400793          	li	a5,4
    80200d7c:	04f71863          	bne	a4,a5,80200dcc <trap_entry_c+0x1e0>
    80200d80:	fd843783          	ld	a5,-40(s0)
    80200d84:	00478713          	addi	a4,a5,4
    80200d88:	fa843783          	ld	a5,-88(s0)
    80200d8c:	0ee7bc23          	sd	a4,248(a5)
    80200d90:	fa843783          	ld	a5,-88(s0)
    80200d94:	0507b783          	ld	a5,80(a5)
    80200d98:	00078713          	mv	a4,a5
    80200d9c:	fa843783          	ld	a5,-88(s0)
    80200da0:	0587b783          	ld	a5,88(a5)
    80200da4:	00078613          	mv	a2,a5
    80200da8:	fa843783          	ld	a5,-88(s0)
    80200dac:	0607b783          	ld	a5,96(a5)
    80200db0:	00078693          	mv	a3,a5
    80200db4:	00070593          	mv	a1,a4
    80200db8:	fa843503          	ld	a0,-88(s0)
    80200dbc:	5b9000ef          	jal	80201b74 <thread_sys_create>
    80200dc0:	fa843783          	ld	a5,-88(s0)
    80200dc4:	0f87b783          	ld	a5,248(a5)
    80200dc8:	1640006f          	j	80200f2c <trap_entry_c+0x340>
    80200dcc:	00003517          	auipc	a0,0x3
    80200dd0:	b0c50513          	addi	a0,a0,-1268 # 802038d8 <log_init_baremetal+0x1cc>
    80200dd4:	ed4ff0ef          	jal	802004a8 <platform_puts>
    80200dd8:	fb843503          	ld	a0,-72(s0)
    80200ddc:	d38ff0ef          	jal	80200314 <platform_put_hex64>
    80200de0:	00003517          	auipc	a0,0x3
    80200de4:	b1050513          	addi	a0,a0,-1264 # 802038f0 <log_init_baremetal+0x1e4>
    80200de8:	ec0ff0ef          	jal	802004a8 <platform_puts>
    80200dec:	fd843783          	ld	a5,-40(s0)
    80200df0:	00478713          	addi	a4,a5,4
    80200df4:	fa843783          	ld	a5,-88(s0)
    80200df8:	0ee7bc23          	sd	a4,248(a5)
    80200dfc:	fa843783          	ld	a5,-88(s0)
    80200e00:	0f87b783          	ld	a5,248(a5)
    80200e04:	1280006f          	j	80200f2c <trap_entry_c+0x340>
    80200e08:	00003517          	auipc	a0,0x3
    80200e0c:	af050513          	addi	a0,a0,-1296 # 802038f8 <log_init_baremetal+0x1ec>
    80200e10:	e98ff0ef          	jal	802004a8 <platform_puts>
    80200e14:	fcc42783          	lw	a5,-52(s0)
    80200e18:	0007879b          	sext.w	a5,a5
    80200e1c:	00078a63          	beqz	a5,80200e30 <trap_entry_c+0x244>
    80200e20:	00003517          	auipc	a0,0x3
    80200e24:	ae850513          	addi	a0,a0,-1304 # 80203908 <log_init_baremetal+0x1fc>
    80200e28:	e80ff0ef          	jal	802004a8 <platform_puts>
    80200e2c:	0100006f          	j	80200e3c <trap_entry_c+0x250>
    80200e30:	00003517          	auipc	a0,0x3
    80200e34:	ae850513          	addi	a0,a0,-1304 # 80203918 <log_init_baremetal+0x20c>
    80200e38:	e70ff0ef          	jal	802004a8 <platform_puts>
    80200e3c:	00003517          	auipc	a0,0x3
    80200e40:	aec50513          	addi	a0,a0,-1300 # 80203928 <log_init_baremetal+0x21c>
    80200e44:	e64ff0ef          	jal	802004a8 <platform_puts>
    80200e48:	fc043503          	ld	a0,-64(s0)
    80200e4c:	cc8ff0ef          	jal	80200314 <platform_put_hex64>
    80200e50:	fcc42783          	lw	a5,-52(s0)
    80200e54:	0007879b          	sext.w	a5,a5
    80200e58:	06079863          	bnez	a5,80200ec8 <trap_entry_c+0x2dc>
    80200e5c:	fc043703          	ld	a4,-64(s0)
    80200e60:	00200793          	li	a5,2
    80200e64:	00f71a63          	bne	a4,a5,80200e78 <trap_entry_c+0x28c>
    80200e68:	00003517          	auipc	a0,0x3
    80200e6c:	ac850513          	addi	a0,a0,-1336 # 80203930 <log_init_baremetal+0x224>
    80200e70:	e38ff0ef          	jal	802004a8 <platform_puts>
    80200e74:	0540006f          	j	80200ec8 <trap_entry_c+0x2dc>
    80200e78:	fc043703          	ld	a4,-64(s0)
    80200e7c:	00b00793          	li	a5,11
    80200e80:	00f71a63          	bne	a4,a5,80200e94 <trap_entry_c+0x2a8>
    80200e84:	00003517          	auipc	a0,0x3
    80200e88:	ac450513          	addi	a0,a0,-1340 # 80203948 <log_init_baremetal+0x23c>
    80200e8c:	e1cff0ef          	jal	802004a8 <platform_puts>
    80200e90:	0380006f          	j	80200ec8 <trap_entry_c+0x2dc>
    80200e94:	fc043703          	ld	a4,-64(s0)
    80200e98:	00900793          	li	a5,9
    80200e9c:	00f71a63          	bne	a4,a5,80200eb0 <trap_entry_c+0x2c4>
    80200ea0:	00003517          	auipc	a0,0x3
    80200ea4:	ac050513          	addi	a0,a0,-1344 # 80203960 <log_init_baremetal+0x254>
    80200ea8:	e00ff0ef          	jal	802004a8 <platform_puts>
    80200eac:	01c0006f          	j	80200ec8 <trap_entry_c+0x2dc>
    80200eb0:	fc043703          	ld	a4,-64(s0)
    80200eb4:	00800793          	li	a5,8
    80200eb8:	00f71863          	bne	a4,a5,80200ec8 <trap_entry_c+0x2dc>
    80200ebc:	00003517          	auipc	a0,0x3
    80200ec0:	abc50513          	addi	a0,a0,-1348 # 80203978 <log_init_baremetal+0x26c>
    80200ec4:	de4ff0ef          	jal	802004a8 <platform_puts>
    80200ec8:	00003517          	auipc	a0,0x3
    80200ecc:	ac850513          	addi	a0,a0,-1336 # 80203990 <log_init_baremetal+0x284>
    80200ed0:	dd8ff0ef          	jal	802004a8 <platform_puts>
    80200ed4:	fe843503          	ld	a0,-24(s0)
    80200ed8:	c3cff0ef          	jal	80200314 <platform_put_hex64>
    80200edc:	00003517          	auipc	a0,0x3
    80200ee0:	ac450513          	addi	a0,a0,-1340 # 802039a0 <log_init_baremetal+0x294>
    80200ee4:	dc4ff0ef          	jal	802004a8 <platform_puts>
    80200ee8:	fd843503          	ld	a0,-40(s0)
    80200eec:	c28ff0ef          	jal	80200314 <platform_put_hex64>
    80200ef0:	00003517          	auipc	a0,0x3
    80200ef4:	ab850513          	addi	a0,a0,-1352 # 802039a8 <log_init_baremetal+0x29c>
    80200ef8:	db0ff0ef          	jal	802004a8 <platform_puts>
    80200efc:	fe043503          	ld	a0,-32(s0)
    80200f00:	c14ff0ef          	jal	80200314 <platform_put_hex64>
    80200f04:	00003517          	auipc	a0,0x3
    80200f08:	ab450513          	addi	a0,a0,-1356 # 802039b8 <log_init_baremetal+0x2ac>
    80200f0c:	d9cff0ef          	jal	802004a8 <platform_puts>
    80200f10:	fd043503          	ld	a0,-48(s0)
    80200f14:	c00ff0ef          	jal	80200314 <platform_put_hex64>
    80200f18:	00003517          	auipc	a0,0x3
    80200f1c:	9d850513          	addi	a0,a0,-1576 # 802038f0 <log_init_baremetal+0x1e4>
    80200f20:	d88ff0ef          	jal	802004a8 <platform_puts>
    80200f24:	00000013          	nop
    80200f28:	ffdff06f          	j	80200f24 <trap_entry_c+0x338>
    80200f2c:	00078513          	mv	a0,a5
    80200f30:	05813083          	ld	ra,88(sp)
    80200f34:	05013403          	ld	s0,80(sp)
    80200f38:	06010113          	addi	sp,sp,96
    80200f3c:	00008067          	ret

0000000080200f40 <memset>:
    80200f40:	fb010113          	addi	sp,sp,-80
    80200f44:	04113423          	sd	ra,72(sp)
    80200f48:	04813023          	sd	s0,64(sp)
    80200f4c:	05010413          	addi	s0,sp,80
    80200f50:	fca43423          	sd	a0,-56(s0)
    80200f54:	00058793          	mv	a5,a1
    80200f58:	fac43c23          	sd	a2,-72(s0)
    80200f5c:	fcf42223          	sw	a5,-60(s0)
    80200f60:	fc843783          	ld	a5,-56(s0)
    80200f64:	fef43023          	sd	a5,-32(s0)
    80200f68:	fc442783          	lw	a5,-60(s0)
    80200f6c:	fcf40fa3          	sb	a5,-33(s0)
    80200f70:	fe043423          	sd	zero,-24(s0)
    80200f74:	0240006f          	j	80200f98 <memset+0x58>
    80200f78:	fe043703          	ld	a4,-32(s0)
    80200f7c:	fe843783          	ld	a5,-24(s0)
    80200f80:	00f707b3          	add	a5,a4,a5
    80200f84:	fdf44703          	lbu	a4,-33(s0)
    80200f88:	00e78023          	sb	a4,0(a5)
    80200f8c:	fe843783          	ld	a5,-24(s0)
    80200f90:	00178793          	addi	a5,a5,1
    80200f94:	fef43423          	sd	a5,-24(s0)
    80200f98:	fe843703          	ld	a4,-24(s0)
    80200f9c:	fb843783          	ld	a5,-72(s0)
    80200fa0:	fcf76ce3          	bltu	a4,a5,80200f78 <memset+0x38>
    80200fa4:	fc843783          	ld	a5,-56(s0)
    80200fa8:	00078513          	mv	a0,a5
    80200fac:	04813083          	ld	ra,72(sp)
    80200fb0:	04013403          	ld	s0,64(sp)
    80200fb4:	05010113          	addi	sp,sp,80
    80200fb8:	00008067          	ret

0000000080200fbc <memcpy>:
    80200fbc:	fb010113          	addi	sp,sp,-80
    80200fc0:	04113423          	sd	ra,72(sp)
    80200fc4:	04813023          	sd	s0,64(sp)
    80200fc8:	05010413          	addi	s0,sp,80
    80200fcc:	fca43423          	sd	a0,-56(s0)
    80200fd0:	fcb43023          	sd	a1,-64(s0)
    80200fd4:	fac43c23          	sd	a2,-72(s0)
    80200fd8:	fc843783          	ld	a5,-56(s0)
    80200fdc:	fef43023          	sd	a5,-32(s0)
    80200fe0:	fc043783          	ld	a5,-64(s0)
    80200fe4:	fcf43c23          	sd	a5,-40(s0)
    80200fe8:	fe043423          	sd	zero,-24(s0)
    80200fec:	0300006f          	j	8020101c <memcpy+0x60>
    80200ff0:	fd843703          	ld	a4,-40(s0)
    80200ff4:	fe843783          	ld	a5,-24(s0)
    80200ff8:	00f70733          	add	a4,a4,a5
    80200ffc:	fe043683          	ld	a3,-32(s0)
    80201000:	fe843783          	ld	a5,-24(s0)
    80201004:	00f687b3          	add	a5,a3,a5
    80201008:	00074703          	lbu	a4,0(a4)
    8020100c:	00e78023          	sb	a4,0(a5)
    80201010:	fe843783          	ld	a5,-24(s0)
    80201014:	00178793          	addi	a5,a5,1
    80201018:	fef43423          	sd	a5,-24(s0)
    8020101c:	fe843703          	ld	a4,-24(s0)
    80201020:	fb843783          	ld	a5,-72(s0)
    80201024:	fcf766e3          	bltu	a4,a5,80200ff0 <memcpy+0x34>
    80201028:	fc843783          	ld	a5,-56(s0)
    8020102c:	00078513          	mv	a0,a5
    80201030:	04813083          	ld	ra,72(sp)
    80201034:	04013403          	ld	s0,64(sp)
    80201038:	05010113          	addi	sp,sp,80
    8020103c:	00008067          	ret

0000000080201040 <memcmp>:
    80201040:	fb010113          	addi	sp,sp,-80
    80201044:	04113423          	sd	ra,72(sp)
    80201048:	04813023          	sd	s0,64(sp)
    8020104c:	05010413          	addi	s0,sp,80
    80201050:	fca43423          	sd	a0,-56(s0)
    80201054:	fcb43023          	sd	a1,-64(s0)
    80201058:	fac43c23          	sd	a2,-72(s0)
    8020105c:	fc843783          	ld	a5,-56(s0)
    80201060:	fef43023          	sd	a5,-32(s0)
    80201064:	fc043783          	ld	a5,-64(s0)
    80201068:	fcf43c23          	sd	a5,-40(s0)
    8020106c:	fe043423          	sd	zero,-24(s0)
    80201070:	06c0006f          	j	802010dc <memcmp+0x9c>
    80201074:	fe043703          	ld	a4,-32(s0)
    80201078:	fe843783          	ld	a5,-24(s0)
    8020107c:	00f707b3          	add	a5,a4,a5
    80201080:	0007c683          	lbu	a3,0(a5)
    80201084:	fd843703          	ld	a4,-40(s0)
    80201088:	fe843783          	ld	a5,-24(s0)
    8020108c:	00f707b3          	add	a5,a4,a5
    80201090:	0007c783          	lbu	a5,0(a5)
    80201094:	00068713          	mv	a4,a3
    80201098:	02f70c63          	beq	a4,a5,802010d0 <memcmp+0x90>
    8020109c:	fe043703          	ld	a4,-32(s0)
    802010a0:	fe843783          	ld	a5,-24(s0)
    802010a4:	00f707b3          	add	a5,a4,a5
    802010a8:	0007c783          	lbu	a5,0(a5)
    802010ac:	0007871b          	sext.w	a4,a5
    802010b0:	fd843683          	ld	a3,-40(s0)
    802010b4:	fe843783          	ld	a5,-24(s0)
    802010b8:	00f687b3          	add	a5,a3,a5
    802010bc:	0007c783          	lbu	a5,0(a5)
    802010c0:	0007879b          	sext.w	a5,a5
    802010c4:	40f707bb          	subw	a5,a4,a5
    802010c8:	0007879b          	sext.w	a5,a5
    802010cc:	0200006f          	j	802010ec <memcmp+0xac>
    802010d0:	fe843783          	ld	a5,-24(s0)
    802010d4:	00178793          	addi	a5,a5,1
    802010d8:	fef43423          	sd	a5,-24(s0)
    802010dc:	fe843703          	ld	a4,-24(s0)
    802010e0:	fb843783          	ld	a5,-72(s0)
    802010e4:	f8f768e3          	bltu	a4,a5,80201074 <memcmp+0x34>
    802010e8:	00000793          	li	a5,0
    802010ec:	00078513          	mv	a0,a5
    802010f0:	04813083          	ld	ra,72(sp)
    802010f4:	04013403          	ld	s0,64(sp)
    802010f8:	05010113          	addi	sp,sp,80
    802010fc:	00008067          	ret

0000000080201100 <strlen>:
    80201100:	fd010113          	addi	sp,sp,-48
    80201104:	02113423          	sd	ra,40(sp)
    80201108:	02813023          	sd	s0,32(sp)
    8020110c:	03010413          	addi	s0,sp,48
    80201110:	fca43c23          	sd	a0,-40(s0)
    80201114:	fe043423          	sd	zero,-24(s0)
    80201118:	0100006f          	j	80201128 <strlen+0x28>
    8020111c:	fe843783          	ld	a5,-24(s0)
    80201120:	00178793          	addi	a5,a5,1
    80201124:	fef43423          	sd	a5,-24(s0)
    80201128:	fd843703          	ld	a4,-40(s0)
    8020112c:	fe843783          	ld	a5,-24(s0)
    80201130:	00f707b3          	add	a5,a4,a5
    80201134:	0007c783          	lbu	a5,0(a5)
    80201138:	fe0792e3          	bnez	a5,8020111c <strlen+0x1c>
    8020113c:	fe843783          	ld	a5,-24(s0)
    80201140:	00078513          	mv	a0,a5
    80201144:	02813083          	ld	ra,40(sp)
    80201148:	02013403          	ld	s0,32(sp)
    8020114c:	03010113          	addi	sp,sp,48
    80201150:	00008067          	ret

0000000080201154 <tf_clear>:
    80201154:	fe010113          	addi	sp,sp,-32
    80201158:	00113c23          	sd	ra,24(sp)
    8020115c:	00813823          	sd	s0,16(sp)
    80201160:	02010413          	addi	s0,sp,32
    80201164:	fea43423          	sd	a0,-24(s0)
    80201168:	12000613          	li	a2,288
    8020116c:	00000593          	li	a1,0
    80201170:	fe843503          	ld	a0,-24(s0)
    80201174:	dcdff0ef          	jal	80200f40 <memset>
    80201178:	00000013          	nop
    8020117c:	01813083          	ld	ra,24(sp)
    80201180:	01013403          	ld	s0,16(sp)
    80201184:	02010113          	addi	sp,sp,32
    80201188:	00008067          	ret

000000008020118c <thread_by_tid>:
    8020118c:	fe010113          	addi	sp,sp,-32
    80201190:	00113c23          	sd	ra,24(sp)
    80201194:	00813823          	sd	s0,16(sp)
    80201198:	02010413          	addi	s0,sp,32
    8020119c:	00050793          	mv	a5,a0
    802011a0:	fef42623          	sw	a5,-20(s0)
    802011a4:	fec42783          	lw	a5,-20(s0)
    802011a8:	0007879b          	sext.w	a5,a5
    802011ac:	0007ca63          	bltz	a5,802011c0 <thread_by_tid+0x34>
    802011b0:	fec42783          	lw	a5,-20(s0)
    802011b4:	0007871b          	sext.w	a4,a5
    802011b8:	00900793          	li	a5,9
    802011bc:	00e7d663          	bge	a5,a4,802011c8 <thread_by_tid+0x3c>
    802011c0:	00000793          	li	a5,0
    802011c4:	01c0006f          	j	802011e0 <thread_by_tid+0x54>
    802011c8:	fec42703          	lw	a4,-20(s0)
    802011cc:	15800793          	li	a5,344
    802011d0:	02f70733          	mul	a4,a4,a5
    802011d4:	00004797          	auipc	a5,0x4
    802011d8:	9bc78793          	addi	a5,a5,-1604 # 80204b90 <g_threads>
    802011dc:	00f707b3          	add	a5,a4,a5
    802011e0:	00078513          	mv	a0,a5
    802011e4:	01813083          	ld	ra,24(sp)
    802011e8:	01013403          	ld	s0,16(sp)
    802011ec:	02010113          	addi	sp,sp,32
    802011f0:	00008067          	ret

00000000802011f4 <alloc_thread_slot>:
    802011f4:	fe010113          	addi	sp,sp,-32
    802011f8:	00113c23          	sd	ra,24(sp)
    802011fc:	00813823          	sd	s0,16(sp)
    80201200:	02010413          	addi	s0,sp,32
    80201204:	00200793          	li	a5,2
    80201208:	fef42623          	sw	a5,-20(s0)
    8020120c:	0380006f          	j	80201244 <alloc_thread_slot+0x50>
    80201210:	00004717          	auipc	a4,0x4
    80201214:	98070713          	addi	a4,a4,-1664 # 80204b90 <g_threads>
    80201218:	fec42683          	lw	a3,-20(s0)
    8020121c:	15800793          	li	a5,344
    80201220:	02f687b3          	mul	a5,a3,a5
    80201224:	00f707b3          	add	a5,a4,a5
    80201228:	0047a783          	lw	a5,4(a5)
    8020122c:	00079663          	bnez	a5,80201238 <alloc_thread_slot+0x44>
    80201230:	fec42783          	lw	a5,-20(s0)
    80201234:	0240006f          	j	80201258 <alloc_thread_slot+0x64>
    80201238:	fec42783          	lw	a5,-20(s0)
    8020123c:	0017879b          	addiw	a5,a5,1
    80201240:	fef42623          	sw	a5,-20(s0)
    80201244:	fec42783          	lw	a5,-20(s0)
    80201248:	0007871b          	sext.w	a4,a5
    8020124c:	00900793          	li	a5,9
    80201250:	fce7d0e3          	bge	a5,a4,80201210 <alloc_thread_slot+0x1c>
    80201254:	fff00793          	li	a5,-1
    80201258:	00078513          	mv	a0,a5
    8020125c:	01813083          	ld	ra,24(sp)
    80201260:	01013403          	ld	s0,16(sp)
    80201264:	02010113          	addi	sp,sp,32
    80201268:	00008067          	ret

000000008020126c <init_thread_context>:
    8020126c:	fc010113          	addi	sp,sp,-64
    80201270:	02113c23          	sd	ra,56(sp)
    80201274:	02813823          	sd	s0,48(sp)
    80201278:	04010413          	addi	s0,sp,64
    8020127c:	fca43c23          	sd	a0,-40(s0)
    80201280:	fcb43823          	sd	a1,-48(s0)
    80201284:	fcc43423          	sd	a2,-56(s0)
    80201288:	fd843783          	ld	a5,-40(s0)
    8020128c:	01878793          	addi	a5,a5,24
    80201290:	00078513          	mv	a0,a5
    80201294:	ec1ff0ef          	jal	80201154 <tf_clear>
    80201298:	fd843783          	ld	a5,-40(s0)
    8020129c:	1387b703          	ld	a4,312(a5)
    802012a0:	000017b7          	lui	a5,0x1
    802012a4:	00f707b3          	add	a5,a4,a5
    802012a8:	fef43423          	sd	a5,-24(s0)
    802012ac:	fe843783          	ld	a5,-24(s0)
    802012b0:	ff07f793          	andi	a5,a5,-16
    802012b4:	fef43423          	sd	a5,-24(s0)
    802012b8:	fd843783          	ld	a5,-40(s0)
    802012bc:	fe843703          	ld	a4,-24(s0)
    802012c0:	02e7b023          	sd	a4,32(a5) # 1020 <STACK_SIZE+0x20>
    802012c4:	fd043703          	ld	a4,-48(s0)
    802012c8:	fd843783          	ld	a5,-40(s0)
    802012cc:	10e7b823          	sd	a4,272(a5)
    802012d0:	fc843703          	ld	a4,-56(s0)
    802012d4:	fd843783          	ld	a5,-40(s0)
    802012d8:	06e7b023          	sd	a4,96(a5)
    802012dc:	00000013          	nop
    802012e0:	03813083          	ld	ra,56(sp)
    802012e4:	03013403          	ld	s0,48(sp)
    802012e8:	04010113          	addi	sp,sp,64
    802012ec:	00008067          	ret

00000000802012f0 <idle_main>:
    802012f0:	fe010113          	addi	sp,sp,-32
    802012f4:	00113c23          	sd	ra,24(sp)
    802012f8:	00813823          	sd	s0,16(sp)
    802012fc:	02010413          	addi	s0,sp,32
    80201300:	fea43423          	sd	a0,-24(s0)
    80201304:	9e0ff0ef          	jal	802004e4 <platform_idle>
    80201308:	ffdff06f          	j	80201304 <idle_main+0x14>

000000008020130c <recycle_thread>:
    8020130c:	fd010113          	addi	sp,sp,-48
    80201310:	02113423          	sd	ra,40(sp)
    80201314:	02813023          	sd	s0,32(sp)
    80201318:	03010413          	addi	s0,sp,48
    8020131c:	00050793          	mv	a5,a0
    80201320:	fcf42e23          	sw	a5,-36(s0)
    80201324:	fdc42783          	lw	a5,-36(s0)
    80201328:	0007879b          	sext.w	a5,a5
    8020132c:	08f05663          	blez	a5,802013b8 <recycle_thread+0xac>
    80201330:	fdc42783          	lw	a5,-36(s0)
    80201334:	0007871b          	sext.w	a4,a5
    80201338:	00900793          	li	a5,9
    8020133c:	06e7ce63          	blt	a5,a4,802013b8 <recycle_thread+0xac>
    80201340:	fdc42703          	lw	a4,-36(s0)
    80201344:	15800793          	li	a5,344
    80201348:	02f70733          	mul	a4,a4,a5
    8020134c:	00004797          	auipc	a5,0x4
    80201350:	84478793          	addi	a5,a5,-1980 # 80204b90 <g_threads>
    80201354:	00f707b3          	add	a5,a4,a5
    80201358:	fef43423          	sd	a5,-24(s0)
    8020135c:	fe843783          	ld	a5,-24(s0)
    80201360:	0007a223          	sw	zero,4(a5)
    80201364:	fe843783          	ld	a5,-24(s0)
    80201368:	0007b423          	sd	zero,8(a5)
    8020136c:	fe843783          	ld	a5,-24(s0)
    80201370:	00002717          	auipc	a4,0x2
    80201374:	65870713          	addi	a4,a4,1624 # 802039c8 <log_init_baremetal+0x2bc>
    80201378:	00e7b823          	sd	a4,16(a5)
    8020137c:	fe843783          	ld	a5,-24(s0)
    80201380:	1407a023          	sw	zero,320(a5)
    80201384:	fe843783          	ld	a5,-24(s0)
    80201388:	fff00713          	li	a4,-1
    8020138c:	14e7a223          	sw	a4,324(a5)
    80201390:	fe843783          	ld	a5,-24(s0)
    80201394:	fff00713          	li	a4,-1
    80201398:	14e7a423          	sw	a4,328(a5)
    8020139c:	fe843783          	ld	a5,-24(s0)
    802013a0:	1407b823          	sd	zero,336(a5)
    802013a4:	fe843783          	ld	a5,-24(s0)
    802013a8:	01878793          	addi	a5,a5,24
    802013ac:	00078513          	mv	a0,a5
    802013b0:	da5ff0ef          	jal	80201154 <tf_clear>
    802013b4:	0080006f          	j	802013bc <recycle_thread+0xb0>
    802013b8:	00000013          	nop
    802013bc:	02813083          	ld	ra,40(sp)
    802013c0:	02013403          	ld	s0,32(sp)
    802013c4:	03010113          	addi	sp,sp,48
    802013c8:	00008067          	ret

00000000802013cc <threads_init>:
    802013cc:	fc010113          	addi	sp,sp,-64
    802013d0:	02113c23          	sd	ra,56(sp)
    802013d4:	02813823          	sd	s0,48(sp)
    802013d8:	04010413          	addi	s0,sp,64
    802013dc:	0000e797          	auipc	a5,0xe
    802013e0:	52c78793          	addi	a5,a5,1324 # 8020f908 <g_ticks>
    802013e4:	0007b023          	sd	zero,0(a5)
    802013e8:	0000e797          	auipc	a5,0xe
    802013ec:	51878793          	addi	a5,a5,1304 # 8020f900 <g_current_tid>
    802013f0:	00100713          	li	a4,1
    802013f4:	00e7a023          	sw	a4,0(a5)
    802013f8:	fe042623          	sw	zero,-20(s0)
    802013fc:	1480006f          	j	80201544 <threads_init+0x178>
    80201400:	00003717          	auipc	a4,0x3
    80201404:	79070713          	addi	a4,a4,1936 # 80204b90 <g_threads>
    80201408:	fec42683          	lw	a3,-20(s0)
    8020140c:	15800793          	li	a5,344
    80201410:	02f687b3          	mul	a5,a3,a5
    80201414:	00f707b3          	add	a5,a4,a5
    80201418:	fec42703          	lw	a4,-20(s0)
    8020141c:	00e7a023          	sw	a4,0(a5)
    80201420:	00003717          	auipc	a4,0x3
    80201424:	77070713          	addi	a4,a4,1904 # 80204b90 <g_threads>
    80201428:	fec42683          	lw	a3,-20(s0)
    8020142c:	15800793          	li	a5,344
    80201430:	02f687b3          	mul	a5,a3,a5
    80201434:	00f707b3          	add	a5,a4,a5
    80201438:	0007a223          	sw	zero,4(a5)
    8020143c:	00003717          	auipc	a4,0x3
    80201440:	75470713          	addi	a4,a4,1876 # 80204b90 <g_threads>
    80201444:	fec42683          	lw	a3,-20(s0)
    80201448:	15800793          	li	a5,344
    8020144c:	02f687b3          	mul	a5,a3,a5
    80201450:	00f707b3          	add	a5,a4,a5
    80201454:	0007b423          	sd	zero,8(a5)
    80201458:	00003717          	auipc	a4,0x3
    8020145c:	73870713          	addi	a4,a4,1848 # 80204b90 <g_threads>
    80201460:	fec42683          	lw	a3,-20(s0)
    80201464:	15800793          	li	a5,344
    80201468:	02f687b3          	mul	a5,a3,a5
    8020146c:	00f707b3          	add	a5,a4,a5
    80201470:	00002717          	auipc	a4,0x2
    80201474:	55870713          	addi	a4,a4,1368 # 802039c8 <log_init_baremetal+0x2bc>
    80201478:	00e7b823          	sd	a4,16(a5)
    8020147c:	00003717          	auipc	a4,0x3
    80201480:	71470713          	addi	a4,a4,1812 # 80204b90 <g_threads>
    80201484:	fec42683          	lw	a3,-20(s0)
    80201488:	15800793          	li	a5,344
    8020148c:	02f687b3          	mul	a5,a3,a5
    80201490:	00f707b3          	add	a5,a4,a5
    80201494:	1207bc23          	sd	zero,312(a5)
    80201498:	00003717          	auipc	a4,0x3
    8020149c:	6f870713          	addi	a4,a4,1784 # 80204b90 <g_threads>
    802014a0:	fec42683          	lw	a3,-20(s0)
    802014a4:	15800793          	li	a5,344
    802014a8:	02f687b3          	mul	a5,a3,a5
    802014ac:	00f707b3          	add	a5,a4,a5
    802014b0:	1407a023          	sw	zero,320(a5)
    802014b4:	00003717          	auipc	a4,0x3
    802014b8:	6dc70713          	addi	a4,a4,1756 # 80204b90 <g_threads>
    802014bc:	fec42683          	lw	a3,-20(s0)
    802014c0:	15800793          	li	a5,344
    802014c4:	02f687b3          	mul	a5,a3,a5
    802014c8:	00f707b3          	add	a5,a4,a5
    802014cc:	fff00713          	li	a4,-1
    802014d0:	14e7a223          	sw	a4,324(a5)
    802014d4:	00003717          	auipc	a4,0x3
    802014d8:	6bc70713          	addi	a4,a4,1724 # 80204b90 <g_threads>
    802014dc:	fec42683          	lw	a3,-20(s0)
    802014e0:	15800793          	li	a5,344
    802014e4:	02f687b3          	mul	a5,a3,a5
    802014e8:	00f707b3          	add	a5,a4,a5
    802014ec:	fff00713          	li	a4,-1
    802014f0:	14e7a423          	sw	a4,328(a5)
    802014f4:	00003717          	auipc	a4,0x3
    802014f8:	69c70713          	addi	a4,a4,1692 # 80204b90 <g_threads>
    802014fc:	fec42683          	lw	a3,-20(s0)
    80201500:	15800793          	li	a5,344
    80201504:	02f687b3          	mul	a5,a3,a5
    80201508:	00f707b3          	add	a5,a4,a5
    8020150c:	1407b823          	sd	zero,336(a5)
    80201510:	fec42703          	lw	a4,-20(s0)
    80201514:	15800793          	li	a5,344
    80201518:	02f707b3          	mul	a5,a4,a5
    8020151c:	01078713          	addi	a4,a5,16
    80201520:	00003797          	auipc	a5,0x3
    80201524:	67078793          	addi	a5,a5,1648 # 80204b90 <g_threads>
    80201528:	00f707b3          	add	a5,a4,a5
    8020152c:	00878793          	addi	a5,a5,8
    80201530:	00078513          	mv	a0,a5
    80201534:	c21ff0ef          	jal	80201154 <tf_clear>
    80201538:	fec42783          	lw	a5,-20(s0)
    8020153c:	0017879b          	addiw	a5,a5,1
    80201540:	fef42623          	sw	a5,-20(s0)
    80201544:	fec42783          	lw	a5,-20(s0)
    80201548:	0007871b          	sext.w	a4,a5
    8020154c:	00900793          	li	a5,9
    80201550:	eae7d8e3          	bge	a5,a4,80201400 <threads_init+0x34>
    80201554:	00003797          	auipc	a5,0x3
    80201558:	63c78793          	addi	a5,a5,1596 # 80204b90 <g_threads>
    8020155c:	fef43023          	sd	a5,-32(s0)
    80201560:	fe043783          	ld	a5,-32(s0)
    80201564:	00100713          	li	a4,1
    80201568:	00e7a223          	sw	a4,4(a5)
    8020156c:	fe043783          	ld	a5,-32(s0)
    80201570:	00002717          	auipc	a4,0x2
    80201574:	46070713          	addi	a4,a4,1120 # 802039d0 <log_init_baremetal+0x2c4>
    80201578:	00e7b823          	sd	a4,16(a5)
    8020157c:	fe043783          	ld	a5,-32(s0)
    80201580:	00004717          	auipc	a4,0x4
    80201584:	38070713          	addi	a4,a4,896 # 80205900 <g_thread_stacks>
    80201588:	12e7bc23          	sd	a4,312(a5)
    8020158c:	00000613          	li	a2,0
    80201590:	00000597          	auipc	a1,0x0
    80201594:	d6058593          	addi	a1,a1,-672 # 802012f0 <idle_main>
    80201598:	fe043503          	ld	a0,-32(s0)
    8020159c:	cd1ff0ef          	jal	8020126c <init_thread_context>
    802015a0:	100027f3          	csrr	a5,sstatus
    802015a4:	fcf43c23          	sd	a5,-40(s0)
    802015a8:	fd843783          	ld	a5,-40(s0)
    802015ac:	fcf43823          	sd	a5,-48(s0)
    802015b0:	fd043783          	ld	a5,-48(s0)
    802015b4:	1007e793          	ori	a5,a5,256
    802015b8:	fcf43823          	sd	a5,-48(s0)
    802015bc:	fd043783          	ld	a5,-48(s0)
    802015c0:	0207e793          	ori	a5,a5,32
    802015c4:	fcf43823          	sd	a5,-48(s0)
    802015c8:	fd043783          	ld	a5,-48(s0)
    802015cc:	ffd7f793          	andi	a5,a5,-3
    802015d0:	fcf43823          	sd	a5,-48(s0)
    802015d4:	fe043783          	ld	a5,-32(s0)
    802015d8:	fd043703          	ld	a4,-48(s0)
    802015dc:	10e7bc23          	sd	a4,280(a5)
    802015e0:	00003797          	auipc	a5,0x3
    802015e4:	70878793          	addi	a5,a5,1800 # 80204ce8 <g_threads+0x158>
    802015e8:	fcf43423          	sd	a5,-56(s0)
    802015ec:	fc843783          	ld	a5,-56(s0)
    802015f0:	00200713          	li	a4,2
    802015f4:	00e7a223          	sw	a4,4(a5)
    802015f8:	fc843783          	ld	a5,-56(s0)
    802015fc:	00002717          	auipc	a4,0x2
    80201600:	3dc70713          	addi	a4,a4,988 # 802039d8 <log_init_baremetal+0x2cc>
    80201604:	00e7b823          	sd	a4,16(a5)
    80201608:	fc843783          	ld	a5,-56(s0)
    8020160c:	1207bc23          	sd	zero,312(a5)
    80201610:	00000013          	nop
    80201614:	03813083          	ld	ra,56(sp)
    80201618:	03013403          	ld	s0,48(sp)
    8020161c:	04010113          	addi	sp,sp,64
    80201620:	00008067          	ret

0000000080201624 <thread_create_kern>:
    80201624:	fc010113          	addi	sp,sp,-64
    80201628:	02113c23          	sd	ra,56(sp)
    8020162c:	02813823          	sd	s0,48(sp)
    80201630:	04010413          	addi	s0,sp,64
    80201634:	fca43c23          	sd	a0,-40(s0)
    80201638:	fcb43823          	sd	a1,-48(s0)
    8020163c:	fcc43423          	sd	a2,-56(s0)
    80201640:	fd843783          	ld	a5,-40(s0)
    80201644:	02079863          	bnez	a5,80201674 <thread_create_kern+0x50>
    80201648:	00002717          	auipc	a4,0x2
    8020164c:	39870713          	addi	a4,a4,920 # 802039e0 <log_init_baremetal+0x2d4>
    80201650:	00002697          	auipc	a3,0x2
    80201654:	42068693          	addi	a3,a3,1056 # 80203a70 <__func__.1>
    80201658:	0af00613          	li	a2,175
    8020165c:	00002597          	auipc	a1,0x2
    80201660:	3a458593          	addi	a1,a1,932 # 80203a00 <log_init_baremetal+0x2f4>
    80201664:	00300513          	li	a0,3
    80201668:	339010ef          	jal	802031a0 <log_printf>
    8020166c:	fff00793          	li	a5,-1
    80201670:	0f00006f          	j	80201760 <thread_create_kern+0x13c>
    80201674:	b81ff0ef          	jal	802011f4 <alloc_thread_slot>
    80201678:	00050793          	mv	a5,a0
    8020167c:	fef42623          	sw	a5,-20(s0)
    80201680:	fec42783          	lw	a5,-20(s0)
    80201684:	0007879b          	sext.w	a5,a5
    80201688:	0207d863          	bgez	a5,802016b8 <thread_create_kern+0x94>
    8020168c:	00002717          	auipc	a4,0x2
    80201690:	38470713          	addi	a4,a4,900 # 80203a10 <log_init_baremetal+0x304>
    80201694:	00002697          	auipc	a3,0x2
    80201698:	3dc68693          	addi	a3,a3,988 # 80203a70 <__func__.1>
    8020169c:	0b500613          	li	a2,181
    802016a0:	00002597          	auipc	a1,0x2
    802016a4:	36058593          	addi	a1,a1,864 # 80203a00 <log_init_baremetal+0x2f4>
    802016a8:	00200513          	li	a0,2
    802016ac:	2f5010ef          	jal	802031a0 <log_printf>
    802016b0:	fff00793          	li	a5,-1
    802016b4:	0ac0006f          	j	80201760 <thread_create_kern+0x13c>
    802016b8:	fec42703          	lw	a4,-20(s0)
    802016bc:	15800793          	li	a5,344
    802016c0:	02f70733          	mul	a4,a4,a5
    802016c4:	00003797          	auipc	a5,0x3
    802016c8:	4cc78793          	addi	a5,a5,1228 # 80204b90 <g_threads>
    802016cc:	00f707b3          	add	a5,a4,a5
    802016d0:	fef43023          	sd	a5,-32(s0)
    802016d4:	fe043783          	ld	a5,-32(s0)
    802016d8:	00100713          	li	a4,1
    802016dc:	00e7a223          	sw	a4,4(a5)
    802016e0:	fe043783          	ld	a5,-32(s0)
    802016e4:	0007b423          	sd	zero,8(a5)
    802016e8:	fc843783          	ld	a5,-56(s0)
    802016ec:	00078663          	beqz	a5,802016f8 <thread_create_kern+0xd4>
    802016f0:	fc843783          	ld	a5,-56(s0)
    802016f4:	00c0006f          	j	80201700 <thread_create_kern+0xdc>
    802016f8:	00002797          	auipc	a5,0x2
    802016fc:	33878793          	addi	a5,a5,824 # 80203a30 <log_init_baremetal+0x324>
    80201700:	fe043703          	ld	a4,-32(s0)
    80201704:	00f73823          	sd	a5,16(a4)
    80201708:	fec42783          	lw	a5,-20(s0)
    8020170c:	00c79713          	slli	a4,a5,0xc
    80201710:	00004797          	auipc	a5,0x4
    80201714:	1f078793          	addi	a5,a5,496 # 80205900 <g_thread_stacks>
    80201718:	00f70733          	add	a4,a4,a5
    8020171c:	fe043783          	ld	a5,-32(s0)
    80201720:	12e7bc23          	sd	a4,312(a5)
    80201724:	fe043783          	ld	a5,-32(s0)
    80201728:	1407a023          	sw	zero,320(a5)
    8020172c:	fe043783          	ld	a5,-32(s0)
    80201730:	fff00713          	li	a4,-1
    80201734:	14e7a223          	sw	a4,324(a5)
    80201738:	fe043783          	ld	a5,-32(s0)
    8020173c:	fff00713          	li	a4,-1
    80201740:	14e7a423          	sw	a4,328(a5)
    80201744:	fe043783          	ld	a5,-32(s0)
    80201748:	1407b823          	sd	zero,336(a5)
    8020174c:	fd043603          	ld	a2,-48(s0)
    80201750:	fd843583          	ld	a1,-40(s0)
    80201754:	fe043503          	ld	a0,-32(s0)
    80201758:	b15ff0ef          	jal	8020126c <init_thread_context>
    8020175c:	fec42783          	lw	a5,-20(s0)
    80201760:	00078513          	mv	a0,a5
    80201764:	03813083          	ld	ra,56(sp)
    80201768:	03013403          	ld	s0,48(sp)
    8020176c:	04010113          	addi	sp,sp,64
    80201770:	00008067          	ret

0000000080201774 <threads_start>:
    80201774:	fd010113          	addi	sp,sp,-48
    80201778:	02113423          	sd	ra,40(sp)
    8020177c:	02813023          	sd	s0,32(sp)
    80201780:	03010413          	addi	s0,sp,48
    80201784:	fca43c23          	sd	a0,-40(s0)
    80201788:	fcb43823          	sd	a1,-48(s0)
    8020178c:	a69ff0ef          	jal	802011f4 <alloc_thread_slot>
    80201790:	00050793          	mv	a5,a0
    80201794:	fef42623          	sw	a5,-20(s0)
    80201798:	fec42783          	lw	a5,-20(s0)
    8020179c:	0007879b          	sext.w	a5,a5
    802017a0:	0207d463          	bgez	a5,802017c8 <threads_start+0x54>
    802017a4:	00002717          	auipc	a4,0x2
    802017a8:	29470713          	addi	a4,a4,660 # 80203a38 <log_init_baremetal+0x32c>
    802017ac:	00002697          	auipc	a3,0x2
    802017b0:	2dc68693          	addi	a3,a3,732 # 80203a88 <__func__.0>
    802017b4:	0cd00613          	li	a2,205
    802017b8:	00002597          	auipc	a1,0x2
    802017bc:	24858593          	addi	a1,a1,584 # 80203a00 <log_init_baremetal+0x2f4>
    802017c0:	00200513          	li	a0,2
    802017c4:	1dd010ef          	jal	802031a0 <log_printf>
    802017c8:	fec42703          	lw	a4,-20(s0)
    802017cc:	15800793          	li	a5,344
    802017d0:	02f70733          	mul	a4,a4,a5
    802017d4:	00003797          	auipc	a5,0x3
    802017d8:	3bc78793          	addi	a5,a5,956 # 80204b90 <g_threads>
    802017dc:	00f707b3          	add	a5,a4,a5
    802017e0:	fef43023          	sd	a5,-32(s0)
    802017e4:	fe043783          	ld	a5,-32(s0)
    802017e8:	00200713          	li	a4,2
    802017ec:	00e7a223          	sw	a4,4(a5)
    802017f0:	fe043783          	ld	a5,-32(s0)
    802017f4:	00002717          	auipc	a4,0x2
    802017f8:	26470713          	addi	a4,a4,612 # 80203a58 <log_init_baremetal+0x34c>
    802017fc:	00e7b823          	sd	a4,16(a5)
    80201800:	fec42783          	lw	a5,-20(s0)
    80201804:	00c79713          	slli	a4,a5,0xc
    80201808:	00004797          	auipc	a5,0x4
    8020180c:	0f878793          	addi	a5,a5,248 # 80205900 <g_thread_stacks>
    80201810:	00f70733          	add	a4,a4,a5
    80201814:	fe043783          	ld	a5,-32(s0)
    80201818:	12e7bc23          	sd	a4,312(a5)
    8020181c:	fd043603          	ld	a2,-48(s0)
    80201820:	fd843583          	ld	a1,-40(s0)
    80201824:	fe043503          	ld	a0,-32(s0)
    80201828:	a45ff0ef          	jal	8020126c <init_thread_context>
    8020182c:	fe043783          	ld	a5,-32(s0)
    80201830:	1107b783          	ld	a5,272(a5)
    80201834:	00078713          	mv	a4,a5
    80201838:	fe043783          	ld	a5,-32(s0)
    8020183c:	0607b783          	ld	a5,96(a5)
    80201840:	00078693          	mv	a3,a5
    80201844:	fe043783          	ld	a5,-32(s0)
    80201848:	0207b783          	ld	a5,32(a5)
    8020184c:	00078613          	mv	a2,a5
    80201850:	00068593          	mv	a1,a3
    80201854:	00070513          	mv	a0,a4
    80201858:	9b1fe0ef          	jal	80200208 <arch_drop_to_user>
    8020185c:	10500073          	wfi
    80201860:	ffdff06f          	j	8020185c <threads_start+0xe8>

0000000080201864 <threads_tick>:
    80201864:	fe010113          	addi	sp,sp,-32
    80201868:	00113c23          	sd	ra,24(sp)
    8020186c:	00813823          	sd	s0,16(sp)
    80201870:	02010413          	addi	s0,sp,32
    80201874:	0000e797          	auipc	a5,0xe
    80201878:	09478793          	addi	a5,a5,148 # 8020f908 <g_ticks>
    8020187c:	0007b783          	ld	a5,0(a5)
    80201880:	00178713          	addi	a4,a5,1
    80201884:	0000e797          	auipc	a5,0xe
    80201888:	08478793          	addi	a5,a5,132 # 8020f908 <g_ticks>
    8020188c:	00e7b023          	sd	a4,0(a5)
    80201890:	fe042623          	sw	zero,-20(s0)
    80201894:	0680006f          	j	802018fc <threads_tick+0x98>
    80201898:	fec42703          	lw	a4,-20(s0)
    8020189c:	15800793          	li	a5,344
    802018a0:	02f70733          	mul	a4,a4,a5
    802018a4:	00003797          	auipc	a5,0x3
    802018a8:	2ec78793          	addi	a5,a5,748 # 80204b90 <g_threads>
    802018ac:	00f707b3          	add	a5,a4,a5
    802018b0:	fef43023          	sd	a5,-32(s0)
    802018b4:	fe043783          	ld	a5,-32(s0)
    802018b8:	0047a703          	lw	a4,4(a5)
    802018bc:	00300793          	li	a5,3
    802018c0:	02f71863          	bne	a4,a5,802018f0 <threads_tick+0x8c>
    802018c4:	fe043783          	ld	a5,-32(s0)
    802018c8:	0087b703          	ld	a4,8(a5)
    802018cc:	0000e797          	auipc	a5,0xe
    802018d0:	03c78793          	addi	a5,a5,60 # 8020f908 <g_ticks>
    802018d4:	0007b783          	ld	a5,0(a5)
    802018d8:	00e7ec63          	bltu	a5,a4,802018f0 <threads_tick+0x8c>
    802018dc:	fe043783          	ld	a5,-32(s0)
    802018e0:	0007b423          	sd	zero,8(a5)
    802018e4:	fe043783          	ld	a5,-32(s0)
    802018e8:	00100713          	li	a4,1
    802018ec:	00e7a223          	sw	a4,4(a5)
    802018f0:	fec42783          	lw	a5,-20(s0)
    802018f4:	0017879b          	addiw	a5,a5,1
    802018f8:	fef42623          	sw	a5,-20(s0)
    802018fc:	fec42783          	lw	a5,-20(s0)
    80201900:	0007871b          	sext.w	a4,a5
    80201904:	00900793          	li	a5,9
    80201908:	f8e7d8e3          	bge	a5,a4,80201898 <threads_tick+0x34>
    8020190c:	00000013          	nop
    80201910:	00000013          	nop
    80201914:	01813083          	ld	ra,24(sp)
    80201918:	01013403          	ld	s0,16(sp)
    8020191c:	02010113          	addi	sp,sp,32
    80201920:	00008067          	ret

0000000080201924 <schedule>:
    80201924:	fc010113          	addi	sp,sp,-64
    80201928:	02113c23          	sd	ra,56(sp)
    8020192c:	02813823          	sd	s0,48(sp)
    80201930:	04010413          	addi	s0,sp,64
    80201934:	fca43423          	sd	a0,-56(s0)
    80201938:	0000e797          	auipc	a5,0xe
    8020193c:	fc878793          	addi	a5,a5,-56 # 8020f900 <g_current_tid>
    80201940:	0007a703          	lw	a4,0(a5)
    80201944:	15800793          	li	a5,344
    80201948:	02f70733          	mul	a4,a4,a5
    8020194c:	00003797          	auipc	a5,0x3
    80201950:	24478793          	addi	a5,a5,580 # 80204b90 <g_threads>
    80201954:	00f707b3          	add	a5,a4,a5
    80201958:	fef43023          	sd	a5,-32(s0)
    8020195c:	fe043783          	ld	a5,-32(s0)
    80201960:	fc843703          	ld	a4,-56(s0)
    80201964:	01878793          	addi	a5,a5,24
    80201968:	00070693          	mv	a3,a4
    8020196c:	12000713          	li	a4,288
    80201970:	00070613          	mv	a2,a4
    80201974:	00068593          	mv	a1,a3
    80201978:	00078513          	mv	a0,a5
    8020197c:	e40ff0ef          	jal	80200fbc <memcpy>
    80201980:	fe043783          	ld	a5,-32(s0)
    80201984:	0047a703          	lw	a4,4(a5)
    80201988:	00200793          	li	a5,2
    8020198c:	00f71863          	bne	a4,a5,8020199c <schedule+0x78>
    80201990:	fe043783          	ld	a5,-32(s0)
    80201994:	00100713          	li	a4,1
    80201998:	00e7a223          	sw	a4,4(a5)
    8020199c:	fff00793          	li	a5,-1
    802019a0:	fef42623          	sw	a5,-20(s0)
    802019a4:	0000e797          	auipc	a5,0xe
    802019a8:	f5c78793          	addi	a5,a5,-164 # 8020f900 <g_current_tid>
    802019ac:	0007a783          	lw	a5,0(a5)
    802019b0:	fcf42e23          	sw	a5,-36(s0)
    802019b4:	00100793          	li	a5,1
    802019b8:	fef42423          	sw	a5,-24(s0)
    802019bc:	0980006f          	j	80201a54 <schedule+0x130>
    802019c0:	fdc42783          	lw	a5,-36(s0)
    802019c4:	00078713          	mv	a4,a5
    802019c8:	fe842783          	lw	a5,-24(s0)
    802019cc:	00f707bb          	addw	a5,a4,a5
    802019d0:	0007879b          	sext.w	a5,a5
    802019d4:	00078713          	mv	a4,a5
    802019d8:	0007069b          	sext.w	a3,a4
    802019dc:	666667b7          	lui	a5,0x66666
    802019e0:	66778793          	addi	a5,a5,1639 # 66666667 <STACK_SIZE+0x66665667>
    802019e4:	02f687b3          	mul	a5,a3,a5
    802019e8:	0207d793          	srli	a5,a5,0x20
    802019ec:	4027d79b          	sraiw	a5,a5,0x2
    802019f0:	00078693          	mv	a3,a5
    802019f4:	41f7579b          	sraiw	a5,a4,0x1f
    802019f8:	40f687bb          	subw	a5,a3,a5
    802019fc:	00078693          	mv	a3,a5
    80201a00:	00068793          	mv	a5,a3
    80201a04:	0027979b          	slliw	a5,a5,0x2
    80201a08:	00d787bb          	addw	a5,a5,a3
    80201a0c:	0017979b          	slliw	a5,a5,0x1
    80201a10:	40f707bb          	subw	a5,a4,a5
    80201a14:	fcf42c23          	sw	a5,-40(s0)
    80201a18:	00003717          	auipc	a4,0x3
    80201a1c:	17870713          	addi	a4,a4,376 # 80204b90 <g_threads>
    80201a20:	fd842683          	lw	a3,-40(s0)
    80201a24:	15800793          	li	a5,344
    80201a28:	02f687b3          	mul	a5,a3,a5
    80201a2c:	00f707b3          	add	a5,a4,a5
    80201a30:	0047a703          	lw	a4,4(a5)
    80201a34:	00100793          	li	a5,1
    80201a38:	00f71863          	bne	a4,a5,80201a48 <schedule+0x124>
    80201a3c:	fd842783          	lw	a5,-40(s0)
    80201a40:	fef42623          	sw	a5,-20(s0)
    80201a44:	0200006f          	j	80201a64 <schedule+0x140>
    80201a48:	fe842783          	lw	a5,-24(s0)
    80201a4c:	0017879b          	addiw	a5,a5,1
    80201a50:	fef42423          	sw	a5,-24(s0)
    80201a54:	fe842783          	lw	a5,-24(s0)
    80201a58:	0007871b          	sext.w	a4,a5
    80201a5c:	00a00793          	li	a5,10
    80201a60:	f6e7d0e3          	bge	a5,a4,802019c0 <schedule+0x9c>
    80201a64:	fec42783          	lw	a5,-20(s0)
    80201a68:	0007879b          	sext.w	a5,a5
    80201a6c:	0007d463          	bgez	a5,80201a74 <schedule+0x150>
    80201a70:	fe042623          	sw	zero,-20(s0)
    80201a74:	0000e797          	auipc	a5,0xe
    80201a78:	e8c78793          	addi	a5,a5,-372 # 8020f900 <g_current_tid>
    80201a7c:	fec42703          	lw	a4,-20(s0)
    80201a80:	00e7a023          	sw	a4,0(a5)
    80201a84:	fec42703          	lw	a4,-20(s0)
    80201a88:	15800793          	li	a5,344
    80201a8c:	02f70733          	mul	a4,a4,a5
    80201a90:	00003797          	auipc	a5,0x3
    80201a94:	10078793          	addi	a5,a5,256 # 80204b90 <g_threads>
    80201a98:	00f707b3          	add	a5,a4,a5
    80201a9c:	fcf43823          	sd	a5,-48(s0)
    80201aa0:	fd043783          	ld	a5,-48(s0)
    80201aa4:	00200713          	li	a4,2
    80201aa8:	00e7a223          	sw	a4,4(a5)
    80201aac:	fc843703          	ld	a4,-56(s0)
    80201ab0:	fd043783          	ld	a5,-48(s0)
    80201ab4:	00070693          	mv	a3,a4
    80201ab8:	01878793          	addi	a5,a5,24
    80201abc:	12000713          	li	a4,288
    80201ac0:	00070613          	mv	a2,a4
    80201ac4:	00078593          	mv	a1,a5
    80201ac8:	00068513          	mv	a0,a3
    80201acc:	cf0ff0ef          	jal	80200fbc <memcpy>
    80201ad0:	00000013          	nop
    80201ad4:	03813083          	ld	ra,56(sp)
    80201ad8:	03013403          	ld	s0,48(sp)
    80201adc:	04010113          	addi	sp,sp,64
    80201ae0:	00008067          	ret

0000000080201ae4 <thread_sys_sleep>:
    80201ae4:	fd010113          	addi	sp,sp,-48
    80201ae8:	02113423          	sd	ra,40(sp)
    80201aec:	02813023          	sd	s0,32(sp)
    80201af0:	03010413          	addi	s0,sp,48
    80201af4:	fca43c23          	sd	a0,-40(s0)
    80201af8:	fcb43823          	sd	a1,-48(s0)
    80201afc:	0000e797          	auipc	a5,0xe
    80201b00:	e0478793          	addi	a5,a5,-508 # 8020f900 <g_current_tid>
    80201b04:	0007a703          	lw	a4,0(a5)
    80201b08:	15800793          	li	a5,344
    80201b0c:	02f70733          	mul	a4,a4,a5
    80201b10:	00003797          	auipc	a5,0x3
    80201b14:	08078793          	addi	a5,a5,128 # 80204b90 <g_threads>
    80201b18:	00f707b3          	add	a5,a4,a5
    80201b1c:	fef43423          	sd	a5,-24(s0)
    80201b20:	fd043783          	ld	a5,-48(s0)
    80201b24:	00079863          	bnez	a5,80201b34 <thread_sys_sleep+0x50>
    80201b28:	fd843503          	ld	a0,-40(s0)
    80201b2c:	df9ff0ef          	jal	80201924 <schedule>
    80201b30:	0340006f          	j	80201b64 <thread_sys_sleep+0x80>
    80201b34:	fe843783          	ld	a5,-24(s0)
    80201b38:	00300713          	li	a4,3
    80201b3c:	00e7a223          	sw	a4,4(a5)
    80201b40:	0000e797          	auipc	a5,0xe
    80201b44:	dc878793          	addi	a5,a5,-568 # 8020f908 <g_ticks>
    80201b48:	0007b703          	ld	a4,0(a5)
    80201b4c:	fd043783          	ld	a5,-48(s0)
    80201b50:	00f70733          	add	a4,a4,a5
    80201b54:	fe843783          	ld	a5,-24(s0)
    80201b58:	00e7b423          	sd	a4,8(a5)
    80201b5c:	fd843503          	ld	a0,-40(s0)
    80201b60:	dc5ff0ef          	jal	80201924 <schedule>
    80201b64:	02813083          	ld	ra,40(sp)
    80201b68:	02013403          	ld	s0,32(sp)
    80201b6c:	03010113          	addi	sp,sp,48
    80201b70:	00008067          	ret

0000000080201b74 <thread_sys_create>:
    80201b74:	fc010113          	addi	sp,sp,-64
    80201b78:	02113c23          	sd	ra,56(sp)
    80201b7c:	02813823          	sd	s0,48(sp)
    80201b80:	04010413          	addi	s0,sp,64
    80201b84:	fca43c23          	sd	a0,-40(s0)
    80201b88:	fcb43823          	sd	a1,-48(s0)
    80201b8c:	fcc43423          	sd	a2,-56(s0)
    80201b90:	fcd43023          	sd	a3,-64(s0)
    80201b94:	fc043603          	ld	a2,-64(s0)
    80201b98:	fc843583          	ld	a1,-56(s0)
    80201b9c:	fd043503          	ld	a0,-48(s0)
    80201ba0:	a85ff0ef          	jal	80201624 <thread_create_kern>
    80201ba4:	00050793          	mv	a5,a0
    80201ba8:	fef42623          	sw	a5,-20(s0)
    80201bac:	fec42703          	lw	a4,-20(s0)
    80201bb0:	fd843783          	ld	a5,-40(s0)
    80201bb4:	04e7b423          	sd	a4,72(a5)
    80201bb8:	00000013          	nop
    80201bbc:	03813083          	ld	ra,56(sp)
    80201bc0:	03013403          	ld	s0,48(sp)
    80201bc4:	04010113          	addi	sp,sp,64
    80201bc8:	00008067          	ret

0000000080201bcc <thread_sys_exit>:
    80201bcc:	fc010113          	addi	sp,sp,-64
    80201bd0:	02113c23          	sd	ra,56(sp)
    80201bd4:	02813823          	sd	s0,48(sp)
    80201bd8:	04010413          	addi	s0,sp,64
    80201bdc:	fca43423          	sd	a0,-56(s0)
    80201be0:	00058793          	mv	a5,a1
    80201be4:	fcf42223          	sw	a5,-60(s0)
    80201be8:	0000e797          	auipc	a5,0xe
    80201bec:	d1878793          	addi	a5,a5,-744 # 8020f900 <g_current_tid>
    80201bf0:	0007a703          	lw	a4,0(a5)
    80201bf4:	15800793          	li	a5,344
    80201bf8:	02f70733          	mul	a4,a4,a5
    80201bfc:	00003797          	auipc	a5,0x3
    80201c00:	f9478793          	addi	a5,a5,-108 # 80204b90 <g_threads>
    80201c04:	00f707b3          	add	a5,a4,a5
    80201c08:	fef43423          	sd	a5,-24(s0)
    80201c0c:	fe843783          	ld	a5,-24(s0)
    80201c10:	fc843703          	ld	a4,-56(s0)
    80201c14:	01878793          	addi	a5,a5,24
    80201c18:	00070693          	mv	a3,a4
    80201c1c:	12000713          	li	a4,288
    80201c20:	00070613          	mv	a2,a4
    80201c24:	00068593          	mv	a1,a3
    80201c28:	00078513          	mv	a0,a5
    80201c2c:	b90ff0ef          	jal	80200fbc <memcpy>
    80201c30:	fe843783          	ld	a5,-24(s0)
    80201c34:	fc442703          	lw	a4,-60(s0)
    80201c38:	14e7a023          	sw	a4,320(a5)
    80201c3c:	fe843783          	ld	a5,-24(s0)
    80201c40:	00500713          	li	a4,5
    80201c44:	00e7a223          	sw	a4,4(a5)
    80201c48:	fe843783          	ld	a5,-24(s0)
    80201c4c:	1447a783          	lw	a5,324(a5)
    80201c50:	0607c863          	bltz	a5,80201cc0 <thread_sys_exit+0xf4>
    80201c54:	fe843783          	ld	a5,-24(s0)
    80201c58:	1447a703          	lw	a4,324(a5)
    80201c5c:	15800793          	li	a5,344
    80201c60:	02f70733          	mul	a4,a4,a5
    80201c64:	00003797          	auipc	a5,0x3
    80201c68:	f2c78793          	addi	a5,a5,-212 # 80204b90 <g_threads>
    80201c6c:	00f707b3          	add	a5,a4,a5
    80201c70:	fef43023          	sd	a5,-32(s0)
    80201c74:	fe043783          	ld	a5,-32(s0)
    80201c78:	1507b783          	ld	a5,336(a5)
    80201c7c:	00078e63          	beqz	a5,80201c98 <thread_sys_exit+0xcc>
    80201c80:	fe043783          	ld	a5,-32(s0)
    80201c84:	1507b783          	ld	a5,336(a5)
    80201c88:	fcf43c23          	sd	a5,-40(s0)
    80201c8c:	fd843783          	ld	a5,-40(s0)
    80201c90:	fc442703          	lw	a4,-60(s0)
    80201c94:	00e7a023          	sw	a4,0(a5)
    80201c98:	fe043783          	ld	a5,-32(s0)
    80201c9c:	0607b023          	sd	zero,96(a5)
    80201ca0:	fe043783          	ld	a5,-32(s0)
    80201ca4:	fff00713          	li	a4,-1
    80201ca8:	14e7a423          	sw	a4,328(a5)
    80201cac:	fe043783          	ld	a5,-32(s0)
    80201cb0:	1407b823          	sd	zero,336(a5)
    80201cb4:	fe043783          	ld	a5,-32(s0)
    80201cb8:	00100713          	li	a4,1
    80201cbc:	00e7a223          	sw	a4,4(a5)
    80201cc0:	fe843783          	ld	a5,-24(s0)
    80201cc4:	fff00713          	li	a4,-1
    80201cc8:	14e7a223          	sw	a4,324(a5)
    80201ccc:	fc843503          	ld	a0,-56(s0)
    80201cd0:	c55ff0ef          	jal	80201924 <schedule>
    80201cd4:	00000013          	nop
    80201cd8:	03813083          	ld	ra,56(sp)
    80201cdc:	03013403          	ld	s0,48(sp)
    80201ce0:	04010113          	addi	sp,sp,64
    80201ce4:	00008067          	ret

0000000080201ce8 <thread_sys_join>:
    80201ce8:	fb010113          	addi	sp,sp,-80
    80201cec:	04113423          	sd	ra,72(sp)
    80201cf0:	04813023          	sd	s0,64(sp)
    80201cf4:	05010413          	addi	s0,sp,80
    80201cf8:	fca43423          	sd	a0,-56(s0)
    80201cfc:	00058793          	mv	a5,a1
    80201d00:	fac43c23          	sd	a2,-72(s0)
    80201d04:	fcf42223          	sw	a5,-60(s0)
    80201d08:	0000e797          	auipc	a5,0xe
    80201d0c:	bf878793          	addi	a5,a5,-1032 # 8020f900 <g_current_tid>
    80201d10:	0007a703          	lw	a4,0(a5)
    80201d14:	15800793          	li	a5,344
    80201d18:	02f70733          	mul	a4,a4,a5
    80201d1c:	00003797          	auipc	a5,0x3
    80201d20:	e7478793          	addi	a5,a5,-396 # 80204b90 <g_threads>
    80201d24:	00f707b3          	add	a5,a4,a5
    80201d28:	fef43423          	sd	a5,-24(s0)
    80201d2c:	fc442783          	lw	a5,-60(s0)
    80201d30:	0007879b          	sext.w	a5,a5
    80201d34:	00f05a63          	blez	a5,80201d48 <thread_sys_join+0x60>
    80201d38:	fc442783          	lw	a5,-60(s0)
    80201d3c:	0007871b          	sext.w	a4,a5
    80201d40:	00900793          	li	a5,9
    80201d44:	00e7da63          	bge	a5,a4,80201d58 <thread_sys_join+0x70>
    80201d48:	fc843783          	ld	a5,-56(s0)
    80201d4c:	fff00713          	li	a4,-1
    80201d50:	04e7b423          	sd	a4,72(a5)
    80201d54:	1200006f          	j	80201e74 <thread_sys_join+0x18c>
    80201d58:	0000e797          	auipc	a5,0xe
    80201d5c:	ba878793          	addi	a5,a5,-1112 # 8020f900 <g_current_tid>
    80201d60:	0007a783          	lw	a5,0(a5)
    80201d64:	fc442703          	lw	a4,-60(s0)
    80201d68:	0007071b          	sext.w	a4,a4
    80201d6c:	00f71a63          	bne	a4,a5,80201d80 <thread_sys_join+0x98>
    80201d70:	fc843783          	ld	a5,-56(s0)
    80201d74:	ffe00713          	li	a4,-2
    80201d78:	04e7b423          	sd	a4,72(a5)
    80201d7c:	0f80006f          	j	80201e74 <thread_sys_join+0x18c>
    80201d80:	fc442703          	lw	a4,-60(s0)
    80201d84:	15800793          	li	a5,344
    80201d88:	02f70733          	mul	a4,a4,a5
    80201d8c:	00003797          	auipc	a5,0x3
    80201d90:	e0478793          	addi	a5,a5,-508 # 80204b90 <g_threads>
    80201d94:	00f707b3          	add	a5,a4,a5
    80201d98:	fef43023          	sd	a5,-32(s0)
    80201d9c:	fe043783          	ld	a5,-32(s0)
    80201da0:	0047a783          	lw	a5,4(a5)
    80201da4:	00079a63          	bnez	a5,80201db8 <thread_sys_join+0xd0>
    80201da8:	fc843783          	ld	a5,-56(s0)
    80201dac:	ffd00713          	li	a4,-3
    80201db0:	04e7b423          	sd	a4,72(a5)
    80201db4:	0c00006f          	j	80201e74 <thread_sys_join+0x18c>
    80201db8:	fe043783          	ld	a5,-32(s0)
    80201dbc:	0047a703          	lw	a4,4(a5)
    80201dc0:	00500793          	li	a5,5
    80201dc4:	02f71e63          	bne	a4,a5,80201e00 <thread_sys_join+0x118>
    80201dc8:	fb843783          	ld	a5,-72(s0)
    80201dcc:	00078e63          	beqz	a5,80201de8 <thread_sys_join+0x100>
    80201dd0:	fb843783          	ld	a5,-72(s0)
    80201dd4:	fcf43c23          	sd	a5,-40(s0)
    80201dd8:	fe043783          	ld	a5,-32(s0)
    80201ddc:	1407a703          	lw	a4,320(a5)
    80201de0:	fd843783          	ld	a5,-40(s0)
    80201de4:	00e7a023          	sw	a4,0(a5)
    80201de8:	fc442783          	lw	a5,-60(s0)
    80201dec:	00078513          	mv	a0,a5
    80201df0:	d1cff0ef          	jal	8020130c <recycle_thread>
    80201df4:	fc843783          	ld	a5,-56(s0)
    80201df8:	0407b423          	sd	zero,72(a5)
    80201dfc:	0780006f          	j	80201e74 <thread_sys_join+0x18c>
    80201e00:	fe043783          	ld	a5,-32(s0)
    80201e04:	1447a783          	lw	a5,324(a5)
    80201e08:	0207c663          	bltz	a5,80201e34 <thread_sys_join+0x14c>
    80201e0c:	fe043783          	ld	a5,-32(s0)
    80201e10:	1447a703          	lw	a4,324(a5)
    80201e14:	0000e797          	auipc	a5,0xe
    80201e18:	aec78793          	addi	a5,a5,-1300 # 8020f900 <g_current_tid>
    80201e1c:	0007a783          	lw	a5,0(a5)
    80201e20:	00f70a63          	beq	a4,a5,80201e34 <thread_sys_join+0x14c>
    80201e24:	fc843783          	ld	a5,-56(s0)
    80201e28:	ffc00713          	li	a4,-4
    80201e2c:	04e7b423          	sd	a4,72(a5)
    80201e30:	0440006f          	j	80201e74 <thread_sys_join+0x18c>
    80201e34:	fe843783          	ld	a5,-24(s0)
    80201e38:	00400713          	li	a4,4
    80201e3c:	00e7a223          	sw	a4,4(a5)
    80201e40:	fe843783          	ld	a5,-24(s0)
    80201e44:	fc442703          	lw	a4,-60(s0)
    80201e48:	14e7a423          	sw	a4,328(a5)
    80201e4c:	fe843783          	ld	a5,-24(s0)
    80201e50:	fb843703          	ld	a4,-72(s0)
    80201e54:	14e7b823          	sd	a4,336(a5)
    80201e58:	0000e797          	auipc	a5,0xe
    80201e5c:	aa878793          	addi	a5,a5,-1368 # 8020f900 <g_current_tid>
    80201e60:	0007a703          	lw	a4,0(a5)
    80201e64:	fe043783          	ld	a5,-32(s0)
    80201e68:	14e7a223          	sw	a4,324(a5)
    80201e6c:	fc843503          	ld	a0,-56(s0)
    80201e70:	ab5ff0ef          	jal	80201924 <schedule>
    80201e74:	04813083          	ld	ra,72(sp)
    80201e78:	04013403          	ld	s0,64(sp)
    80201e7c:	05010113          	addi	sp,sp,80
    80201e80:	00008067          	ret

0000000080201e84 <thread_current>:
    80201e84:	ff010113          	addi	sp,sp,-16
    80201e88:	00113423          	sd	ra,8(sp)
    80201e8c:	00813023          	sd	s0,0(sp)
    80201e90:	01010413          	addi	s0,sp,16
    80201e94:	0000e797          	auipc	a5,0xe
    80201e98:	a6c78793          	addi	a5,a5,-1428 # 8020f900 <g_current_tid>
    80201e9c:	0007a783          	lw	a5,0(a5)
    80201ea0:	00078513          	mv	a0,a5
    80201ea4:	00813083          	ld	ra,8(sp)
    80201ea8:	00013403          	ld	s0,0(sp)
    80201eac:	01010113          	addi	sp,sp,16
    80201eb0:	00008067          	ret

0000000080201eb4 <thread_name>:
    80201eb4:	fd010113          	addi	sp,sp,-48
    80201eb8:	02113423          	sd	ra,40(sp)
    80201ebc:	02813023          	sd	s0,32(sp)
    80201ec0:	03010413          	addi	s0,sp,48
    80201ec4:	00050793          	mv	a5,a0
    80201ec8:	fcf42e23          	sw	a5,-36(s0)
    80201ecc:	fdc42783          	lw	a5,-36(s0)
    80201ed0:	00078513          	mv	a0,a5
    80201ed4:	ab8ff0ef          	jal	8020118c <thread_by_tid>
    80201ed8:	fea43423          	sd	a0,-24(s0)
    80201edc:	fe843783          	ld	a5,-24(s0)
    80201ee0:	00079863          	bnez	a5,80201ef0 <thread_name+0x3c>
    80201ee4:	00002797          	auipc	a5,0x2
    80201ee8:	b8478793          	addi	a5,a5,-1148 # 80203a68 <log_init_baremetal+0x35c>
    80201eec:	00c0006f          	j	80201ef8 <thread_name+0x44>
    80201ef0:	fe843783          	ld	a5,-24(s0)
    80201ef4:	0107b783          	ld	a5,16(a5)
    80201ef8:	00078513          	mv	a0,a5
    80201efc:	02813083          	ld	ra,40(sp)
    80201f00:	02013403          	ld	s0,32(sp)
    80201f04:	03010113          	addi	sp,sp,48
    80201f08:	00008067          	ret

0000000080201f0c <sys_write>:
    80201f0c:	fd010113          	addi	sp,sp,-48
    80201f10:	02113423          	sd	ra,40(sp)
    80201f14:	02813023          	sd	s0,32(sp)
    80201f18:	03010413          	addi	s0,sp,48
    80201f1c:	00050793          	mv	a5,a0
    80201f20:	feb43023          	sd	a1,-32(s0)
    80201f24:	fcc43c23          	sd	a2,-40(s0)
    80201f28:	fef42623          	sw	a5,-20(s0)
    80201f2c:	00500513          	li	a0,5
    80201f30:	fec42783          	lw	a5,-20(s0)
    80201f34:	00078593          	mv	a1,a5
    80201f38:	fe043783          	ld	a5,-32(s0)
    80201f3c:	00078613          	mv	a2,a5
    80201f40:	fd843683          	ld	a3,-40(s0)
    80201f44:	00000073          	ecall
    80201f48:	00050793          	mv	a5,a0
    80201f4c:	0007879b          	sext.w	a5,a5
    80201f50:	00078513          	mv	a0,a5
    80201f54:	02813083          	ld	ra,40(sp)
    80201f58:	02013403          	ld	s0,32(sp)
    80201f5c:	03010113          	addi	sp,sp,48
    80201f60:	00008067          	ret

0000000080201f64 <sys_read>:
    80201f64:	fd010113          	addi	sp,sp,-48
    80201f68:	02113423          	sd	ra,40(sp)
    80201f6c:	02813023          	sd	s0,32(sp)
    80201f70:	03010413          	addi	s0,sp,48
    80201f74:	00050793          	mv	a5,a0
    80201f78:	feb43023          	sd	a1,-32(s0)
    80201f7c:	fcc43c23          	sd	a2,-40(s0)
    80201f80:	fef42623          	sw	a5,-20(s0)
    80201f84:	00600513          	li	a0,6
    80201f88:	fec42783          	lw	a5,-20(s0)
    80201f8c:	00078593          	mv	a1,a5
    80201f90:	fe043783          	ld	a5,-32(s0)
    80201f94:	00078613          	mv	a2,a5
    80201f98:	fd843683          	ld	a3,-40(s0)
    80201f9c:	00000073          	ecall
    80201fa0:	00050793          	mv	a5,a0
    80201fa4:	0007879b          	sext.w	a5,a5
    80201fa8:	00078513          	mv	a0,a5
    80201fac:	02813083          	ld	ra,40(sp)
    80201fb0:	02013403          	ld	s0,32(sp)
    80201fb4:	03010113          	addi	sp,sp,48
    80201fb8:	00008067          	ret

0000000080201fbc <thread_sleep>:
    80201fbc:	fe010113          	addi	sp,sp,-32
    80201fc0:	00113c23          	sd	ra,24(sp)
    80201fc4:	00813823          	sd	s0,16(sp)
    80201fc8:	02010413          	addi	s0,sp,32
    80201fcc:	fea43423          	sd	a0,-24(s0)
    80201fd0:	00100513          	li	a0,1
    80201fd4:	fe843583          	ld	a1,-24(s0)
    80201fd8:	00000073          	ecall
    80201fdc:	00000013          	nop
    80201fe0:	01813083          	ld	ra,24(sp)
    80201fe4:	01013403          	ld	s0,16(sp)
    80201fe8:	02010113          	addi	sp,sp,32
    80201fec:	00008067          	ret

0000000080201ff0 <thread_exit>:
    80201ff0:	fe010113          	addi	sp,sp,-32
    80201ff4:	00113c23          	sd	ra,24(sp)
    80201ff8:	00813823          	sd	s0,16(sp)
    80201ffc:	02010413          	addi	s0,sp,32
    80202000:	00050793          	mv	a5,a0
    80202004:	fef42623          	sw	a5,-20(s0)
    80202008:	00200513          	li	a0,2
    8020200c:	fec42783          	lw	a5,-20(s0)
    80202010:	00078593          	mv	a1,a5
    80202014:	00000073          	ecall
    80202018:	00000013          	nop
    8020201c:	ffdff06f          	j	80202018 <thread_exit+0x28>

0000000080202020 <thread_join>:
    80202020:	fe010113          	addi	sp,sp,-32
    80202024:	00113c23          	sd	ra,24(sp)
    80202028:	00813823          	sd	s0,16(sp)
    8020202c:	02010413          	addi	s0,sp,32
    80202030:	00050793          	mv	a5,a0
    80202034:	feb43023          	sd	a1,-32(s0)
    80202038:	fef42623          	sw	a5,-20(s0)
    8020203c:	00300513          	li	a0,3
    80202040:	fec42783          	lw	a5,-20(s0)
    80202044:	00078593          	mv	a1,a5
    80202048:	fe043783          	ld	a5,-32(s0)
    8020204c:	00078613          	mv	a2,a5
    80202050:	00000073          	ecall
    80202054:	00050793          	mv	a5,a0
    80202058:	0007879b          	sext.w	a5,a5
    8020205c:	00078513          	mv	a0,a5
    80202060:	01813083          	ld	ra,24(sp)
    80202064:	01013403          	ld	s0,16(sp)
    80202068:	02010113          	addi	sp,sp,32
    8020206c:	00008067          	ret

0000000080202070 <thread_create>:
    80202070:	fd010113          	addi	sp,sp,-48
    80202074:	02113423          	sd	ra,40(sp)
    80202078:	02813023          	sd	s0,32(sp)
    8020207c:	03010413          	addi	s0,sp,48
    80202080:	fea43423          	sd	a0,-24(s0)
    80202084:	feb43023          	sd	a1,-32(s0)
    80202088:	fcc43c23          	sd	a2,-40(s0)
    8020208c:	00400513          	li	a0,4
    80202090:	fe843783          	ld	a5,-24(s0)
    80202094:	00078593          	mv	a1,a5
    80202098:	fe043783          	ld	a5,-32(s0)
    8020209c:	00078613          	mv	a2,a5
    802020a0:	fd843783          	ld	a5,-40(s0)
    802020a4:	00078693          	mv	a3,a5
    802020a8:	00000073          	ecall
    802020ac:	00050793          	mv	a5,a0
    802020b0:	0007879b          	sext.w	a5,a5
    802020b4:	00078513          	mv	a0,a5
    802020b8:	02813083          	ld	ra,40(sp)
    802020bc:	02013403          	ld	s0,32(sp)
    802020c0:	03010113          	addi	sp,sp,48
    802020c4:	00008067          	ret

00000000802020c8 <log_append_char>:
    802020c8:	fd010113          	addi	sp,sp,-48
    802020cc:	02113423          	sd	ra,40(sp)
    802020d0:	02813023          	sd	s0,32(sp)
    802020d4:	03010413          	addi	s0,sp,48
    802020d8:	fea43423          	sd	a0,-24(s0)
    802020dc:	feb43023          	sd	a1,-32(s0)
    802020e0:	00060793          	mv	a5,a2
    802020e4:	00068713          	mv	a4,a3
    802020e8:	fcf42e23          	sw	a5,-36(s0)
    802020ec:	00070793          	mv	a5,a4
    802020f0:	fcf40da3          	sb	a5,-37(s0)
    802020f4:	fe043783          	ld	a5,-32(s0)
    802020f8:	0007a703          	lw	a4,0(a5)
    802020fc:	fdc42783          	lw	a5,-36(s0)
    80202100:	fff7879b          	addiw	a5,a5,-1
    80202104:	0007879b          	sext.w	a5,a5
    80202108:	02f75863          	bge	a4,a5,80202138 <log_append_char+0x70>
    8020210c:	fe043783          	ld	a5,-32(s0)
    80202110:	0007a783          	lw	a5,0(a5)
    80202114:	0017871b          	addiw	a4,a5,1
    80202118:	0007069b          	sext.w	a3,a4
    8020211c:	fe043703          	ld	a4,-32(s0)
    80202120:	00d72023          	sw	a3,0(a4)
    80202124:	00078713          	mv	a4,a5
    80202128:	fe843783          	ld	a5,-24(s0)
    8020212c:	00e787b3          	add	a5,a5,a4
    80202130:	fdb44703          	lbu	a4,-37(s0)
    80202134:	00e78023          	sb	a4,0(a5)
    80202138:	00000013          	nop
    8020213c:	02813083          	ld	ra,40(sp)
    80202140:	02013403          	ld	s0,32(sp)
    80202144:	03010113          	addi	sp,sp,48
    80202148:	00008067          	ret

000000008020214c <log_append_str>:
    8020214c:	fd010113          	addi	sp,sp,-48
    80202150:	02113423          	sd	ra,40(sp)
    80202154:	02813023          	sd	s0,32(sp)
    80202158:	03010413          	addi	s0,sp,48
    8020215c:	fea43423          	sd	a0,-24(s0)
    80202160:	feb43023          	sd	a1,-32(s0)
    80202164:	00060793          	mv	a5,a2
    80202168:	fcd43823          	sd	a3,-48(s0)
    8020216c:	fcf42e23          	sw	a5,-36(s0)
    80202170:	fd043783          	ld	a5,-48(s0)
    80202174:	04079663          	bnez	a5,802021c0 <log_append_str+0x74>
    80202178:	00002797          	auipc	a5,0x2
    8020217c:	92078793          	addi	a5,a5,-1760 # 80203a98 <__func__.0+0x10>
    80202180:	fcf43823          	sd	a5,-48(s0)
    80202184:	03c0006f          	j	802021c0 <log_append_str+0x74>
    80202188:	fd043783          	ld	a5,-48(s0)
    8020218c:	00178713          	addi	a4,a5,1
    80202190:	fce43823          	sd	a4,-48(s0)
    80202194:	fe043703          	ld	a4,-32(s0)
    80202198:	00072703          	lw	a4,0(a4)
    8020219c:	0017069b          	addiw	a3,a4,1
    802021a0:	0006861b          	sext.w	a2,a3
    802021a4:	fe043683          	ld	a3,-32(s0)
    802021a8:	00c6a023          	sw	a2,0(a3)
    802021ac:	00070693          	mv	a3,a4
    802021b0:	fe843703          	ld	a4,-24(s0)
    802021b4:	00d70733          	add	a4,a4,a3
    802021b8:	0007c783          	lbu	a5,0(a5)
    802021bc:	00f70023          	sb	a5,0(a4)
    802021c0:	fd043783          	ld	a5,-48(s0)
    802021c4:	0007c783          	lbu	a5,0(a5)
    802021c8:	00078e63          	beqz	a5,802021e4 <log_append_str+0x98>
    802021cc:	fe043783          	ld	a5,-32(s0)
    802021d0:	0007a703          	lw	a4,0(a5)
    802021d4:	fdc42783          	lw	a5,-36(s0)
    802021d8:	fff7879b          	addiw	a5,a5,-1
    802021dc:	0007879b          	sext.w	a5,a5
    802021e0:	faf744e3          	blt	a4,a5,80202188 <log_append_str+0x3c>
    802021e4:	00000013          	nop
    802021e8:	02813083          	ld	ra,40(sp)
    802021ec:	02013403          	ld	s0,32(sp)
    802021f0:	03010113          	addi	sp,sp,48
    802021f4:	00008067          	ret

00000000802021f8 <log_append_uint>:
    802021f8:	f8010113          	addi	sp,sp,-128
    802021fc:	06113c23          	sd	ra,120(sp)
    80202200:	06813823          	sd	s0,112(sp)
    80202204:	08010413          	addi	s0,sp,128
    80202208:	faa43423          	sd	a0,-88(s0)
    8020220c:	fab43023          	sd	a1,-96(s0)
    80202210:	00060513          	mv	a0,a2
    80202214:	f8d43823          	sd	a3,-112(s0)
    80202218:	00070593          	mv	a1,a4
    8020221c:	00078613          	mv	a2,a5
    80202220:	00080693          	mv	a3,a6
    80202224:	00088713          	mv	a4,a7
    80202228:	00050793          	mv	a5,a0
    8020222c:	f8f42e23          	sw	a5,-100(s0)
    80202230:	00058793          	mv	a5,a1
    80202234:	f8f42c23          	sw	a5,-104(s0)
    80202238:	00060793          	mv	a5,a2
    8020223c:	f8f407a3          	sb	a5,-113(s0)
    80202240:	00068793          	mv	a5,a3
    80202244:	f8f42423          	sw	a5,-120(s0)
    80202248:	00070793          	mv	a5,a4
    8020224c:	f8f40723          	sb	a5,-114(s0)
    80202250:	fe042623          	sw	zero,-20(s0)
    80202254:	f9043783          	ld	a5,-112(s0)
    80202258:	0a079a63          	bnez	a5,8020230c <log_append_uint+0x114>
    8020225c:	fec42783          	lw	a5,-20(s0)
    80202260:	0017871b          	addiw	a4,a5,1
    80202264:	fee42623          	sw	a4,-20(s0)
    80202268:	ff078793          	addi	a5,a5,-16
    8020226c:	008787b3          	add	a5,a5,s0
    80202270:	03000713          	li	a4,48
    80202274:	fce78423          	sb	a4,-56(a5)
    80202278:	0ac0006f          	j	80202324 <log_append_uint+0x12c>
    8020227c:	f9846783          	lwu	a5,-104(s0)
    80202280:	f9043703          	ld	a4,-112(s0)
    80202284:	02f777b3          	remu	a5,a4,a5
    80202288:	fef42023          	sw	a5,-32(s0)
    8020228c:	f9846783          	lwu	a5,-104(s0)
    80202290:	f9043703          	ld	a4,-112(s0)
    80202294:	02f757b3          	divu	a5,a4,a5
    80202298:	f8f43823          	sd	a5,-112(s0)
    8020229c:	fe042783          	lw	a5,-32(s0)
    802022a0:	0007871b          	sext.w	a4,a5
    802022a4:	00900793          	li	a5,9
    802022a8:	00e7ec63          	bltu	a5,a4,802022c0 <log_append_uint+0xc8>
    802022ac:	fe042783          	lw	a5,-32(s0)
    802022b0:	0ff7f793          	zext.b	a5,a5
    802022b4:	0307879b          	addiw	a5,a5,48
    802022b8:	fef405a3          	sb	a5,-21(s0)
    802022bc:	0340006f          	j	802022f0 <log_append_uint+0xf8>
    802022c0:	f8f44783          	lbu	a5,-113(s0)
    802022c4:	0ff7f793          	zext.b	a5,a5
    802022c8:	00078663          	beqz	a5,802022d4 <log_append_uint+0xdc>
    802022cc:	04100793          	li	a5,65
    802022d0:	0080006f          	j	802022d8 <log_append_uint+0xe0>
    802022d4:	06100793          	li	a5,97
    802022d8:	fe042703          	lw	a4,-32(s0)
    802022dc:	0ff77713          	zext.b	a4,a4
    802022e0:	00e787bb          	addw	a5,a5,a4
    802022e4:	0ff7f793          	zext.b	a5,a5
    802022e8:	ff67879b          	addiw	a5,a5,-10
    802022ec:	fef405a3          	sb	a5,-21(s0)
    802022f0:	fec42783          	lw	a5,-20(s0)
    802022f4:	0017871b          	addiw	a4,a5,1
    802022f8:	fee42623          	sw	a4,-20(s0)
    802022fc:	ff078793          	addi	a5,a5,-16
    80202300:	008787b3          	add	a5,a5,s0
    80202304:	feb44703          	lbu	a4,-21(s0)
    80202308:	fce78423          	sb	a4,-56(a5)
    8020230c:	f9043783          	ld	a5,-112(s0)
    80202310:	00078a63          	beqz	a5,80202324 <log_append_uint+0x12c>
    80202314:	fec42783          	lw	a5,-20(s0)
    80202318:	0007871b          	sext.w	a4,a5
    8020231c:	01f00793          	li	a5,31
    80202320:	f4e7dee3          	bge	a5,a4,8020227c <log_append_uint+0x84>
    80202324:	fec42783          	lw	a5,-20(s0)
    80202328:	fcf42e23          	sw	a5,-36(s0)
    8020232c:	f8842783          	lw	a5,-120(s0)
    80202330:	00078713          	mv	a4,a5
    80202334:	fdc42783          	lw	a5,-36(s0)
    80202338:	0007071b          	sext.w	a4,a4
    8020233c:	0007879b          	sext.w	a5,a5
    80202340:	00f75663          	bge	a4,a5,8020234c <log_append_uint+0x154>
    80202344:	fdc42783          	lw	a5,-36(s0)
    80202348:	f8f42423          	sw	a5,-120(s0)
    8020234c:	f8842783          	lw	a5,-120(s0)
    80202350:	00078713          	mv	a4,a5
    80202354:	fdc42783          	lw	a5,-36(s0)
    80202358:	40f707bb          	subw	a5,a4,a5
    8020235c:	fef42223          	sw	a5,-28(s0)
    80202360:	0300006f          	j	80202390 <log_append_uint+0x198>
    80202364:	fa043783          	ld	a5,-96(s0)
    80202368:	0007a783          	lw	a5,0(a5)
    8020236c:	0017871b          	addiw	a4,a5,1
    80202370:	0007069b          	sext.w	a3,a4
    80202374:	fa043703          	ld	a4,-96(s0)
    80202378:	00d72023          	sw	a3,0(a4)
    8020237c:	00078713          	mv	a4,a5
    80202380:	fa843783          	ld	a5,-88(s0)
    80202384:	00e787b3          	add	a5,a5,a4
    80202388:	f8e44703          	lbu	a4,-114(s0)
    8020238c:	00e78023          	sb	a4,0(a5)
    80202390:	fe442783          	lw	a5,-28(s0)
    80202394:	fff7871b          	addiw	a4,a5,-1
    80202398:	fee42223          	sw	a4,-28(s0)
    8020239c:	06f05263          	blez	a5,80202400 <log_append_uint+0x208>
    802023a0:	fa043783          	ld	a5,-96(s0)
    802023a4:	0007a703          	lw	a4,0(a5)
    802023a8:	f9c42783          	lw	a5,-100(s0)
    802023ac:	fff7879b          	addiw	a5,a5,-1
    802023b0:	0007879b          	sext.w	a5,a5
    802023b4:	faf748e3          	blt	a4,a5,80202364 <log_append_uint+0x16c>
    802023b8:	0480006f          	j	80202400 <log_append_uint+0x208>
    802023bc:	fec42783          	lw	a5,-20(s0)
    802023c0:	fff7879b          	addiw	a5,a5,-1
    802023c4:	fef42623          	sw	a5,-20(s0)
    802023c8:	fa043783          	ld	a5,-96(s0)
    802023cc:	0007a783          	lw	a5,0(a5)
    802023d0:	0017871b          	addiw	a4,a5,1
    802023d4:	0007069b          	sext.w	a3,a4
    802023d8:	fa043703          	ld	a4,-96(s0)
    802023dc:	00d72023          	sw	a3,0(a4)
    802023e0:	00078713          	mv	a4,a5
    802023e4:	fa843783          	ld	a5,-88(s0)
    802023e8:	00e787b3          	add	a5,a5,a4
    802023ec:	fec42703          	lw	a4,-20(s0)
    802023f0:	ff070713          	addi	a4,a4,-16
    802023f4:	00870733          	add	a4,a4,s0
    802023f8:	fc874703          	lbu	a4,-56(a4)
    802023fc:	00e78023          	sb	a4,0(a5)
    80202400:	fec42783          	lw	a5,-20(s0)
    80202404:	0007879b          	sext.w	a5,a5
    80202408:	00f05e63          	blez	a5,80202424 <log_append_uint+0x22c>
    8020240c:	fa043783          	ld	a5,-96(s0)
    80202410:	0007a703          	lw	a4,0(a5)
    80202414:	f9c42783          	lw	a5,-100(s0)
    80202418:	fff7879b          	addiw	a5,a5,-1
    8020241c:	0007879b          	sext.w	a5,a5
    80202420:	f8f74ee3          	blt	a4,a5,802023bc <log_append_uint+0x1c4>
    80202424:	00000013          	nop
    80202428:	07813083          	ld	ra,120(sp)
    8020242c:	07013403          	ld	s0,112(sp)
    80202430:	08010113          	addi	sp,sp,128
    80202434:	00008067          	ret

0000000080202438 <log_vformat>:
    80202438:	f7010113          	addi	sp,sp,-144
    8020243c:	08113423          	sd	ra,136(sp)
    80202440:	08813023          	sd	s0,128(sp)
    80202444:	09010413          	addi	s0,sp,144
    80202448:	f8a43423          	sd	a0,-120(s0)
    8020244c:	00058793          	mv	a5,a1
    80202450:	f6c43c23          	sd	a2,-136(s0)
    80202454:	f6d43823          	sd	a3,-144(s0)
    80202458:	f8f42223          	sw	a5,-124(s0)
    8020245c:	f8042823          	sw	zero,-112(s0)
    80202460:	f7843783          	ld	a5,-136(s0)
    80202464:	fef43423          	sd	a5,-24(s0)
    80202468:	5480006f          	j	802029b0 <log_vformat+0x578>
    8020246c:	fe843783          	ld	a5,-24(s0)
    80202470:	0007c783          	lbu	a5,0(a5)
    80202474:	00078713          	mv	a4,a5
    80202478:	02500793          	li	a5,37
    8020247c:	02f70463          	beq	a4,a5,802024a4 <log_vformat+0x6c>
    80202480:	fe843783          	ld	a5,-24(s0)
    80202484:	0007c683          	lbu	a3,0(a5)
    80202488:	f8442703          	lw	a4,-124(s0)
    8020248c:	f9040793          	addi	a5,s0,-112
    80202490:	00070613          	mv	a2,a4
    80202494:	00078593          	mv	a1,a5
    80202498:	f8843503          	ld	a0,-120(s0)
    8020249c:	c2dff0ef          	jal	802020c8 <log_append_char>
    802024a0:	5040006f          	j	802029a4 <log_vformat+0x56c>
    802024a4:	fe843783          	ld	a5,-24(s0)
    802024a8:	00178793          	addi	a5,a5,1
    802024ac:	fef43423          	sd	a5,-24(s0)
    802024b0:	fe843783          	ld	a5,-24(s0)
    802024b4:	0007c783          	lbu	a5,0(a5)
    802024b8:	00078713          	mv	a4,a5
    802024bc:	02500793          	li	a5,37
    802024c0:	02f71263          	bne	a4,a5,802024e4 <log_vformat+0xac>
    802024c4:	f8442703          	lw	a4,-124(s0)
    802024c8:	f9040793          	addi	a5,s0,-112
    802024cc:	02500693          	li	a3,37
    802024d0:	00070613          	mv	a2,a4
    802024d4:	00078593          	mv	a1,a5
    802024d8:	f8843503          	ld	a0,-120(s0)
    802024dc:	bedff0ef          	jal	802020c8 <log_append_char>
    802024e0:	4c40006f          	j	802029a4 <log_vformat+0x56c>
    802024e4:	02000793          	li	a5,32
    802024e8:	fef403a3          	sb	a5,-25(s0)
    802024ec:	fe042023          	sw	zero,-32(s0)
    802024f0:	fe843783          	ld	a5,-24(s0)
    802024f4:	0007c783          	lbu	a5,0(a5)
    802024f8:	00078713          	mv	a4,a5
    802024fc:	03000793          	li	a5,48
    80202500:	06f71063          	bne	a4,a5,80202560 <log_vformat+0x128>
    80202504:	03000793          	li	a5,48
    80202508:	fef403a3          	sb	a5,-25(s0)
    8020250c:	fe843783          	ld	a5,-24(s0)
    80202510:	00178793          	addi	a5,a5,1
    80202514:	fef43423          	sd	a5,-24(s0)
    80202518:	0480006f          	j	80202560 <log_vformat+0x128>
    8020251c:	fe042783          	lw	a5,-32(s0)
    80202520:	00078713          	mv	a4,a5
    80202524:	00070793          	mv	a5,a4
    80202528:	0027979b          	slliw	a5,a5,0x2
    8020252c:	00e787bb          	addw	a5,a5,a4
    80202530:	0017979b          	slliw	a5,a5,0x1
    80202534:	0007871b          	sext.w	a4,a5
    80202538:	fe843783          	ld	a5,-24(s0)
    8020253c:	0007c783          	lbu	a5,0(a5)
    80202540:	0007879b          	sext.w	a5,a5
    80202544:	fd07879b          	addiw	a5,a5,-48
    80202548:	0007879b          	sext.w	a5,a5
    8020254c:	00f707bb          	addw	a5,a4,a5
    80202550:	fef42023          	sw	a5,-32(s0)
    80202554:	fe843783          	ld	a5,-24(s0)
    80202558:	00178793          	addi	a5,a5,1
    8020255c:	fef43423          	sd	a5,-24(s0)
    80202560:	fe843783          	ld	a5,-24(s0)
    80202564:	0007c783          	lbu	a5,0(a5)
    80202568:	00078713          	mv	a4,a5
    8020256c:	02f00793          	li	a5,47
    80202570:	00e7fc63          	bgeu	a5,a4,80202588 <log_vformat+0x150>
    80202574:	fe843783          	ld	a5,-24(s0)
    80202578:	0007c783          	lbu	a5,0(a5)
    8020257c:	00078713          	mv	a4,a5
    80202580:	03900793          	li	a5,57
    80202584:	f8e7fce3          	bgeu	a5,a4,8020251c <log_vformat+0xe4>
    80202588:	fc042e23          	sw	zero,-36(s0)
    8020258c:	fe843783          	ld	a5,-24(s0)
    80202590:	0007c783          	lbu	a5,0(a5)
    80202594:	00078713          	mv	a4,a5
    80202598:	06c00793          	li	a5,108
    8020259c:	04f71063          	bne	a4,a5,802025dc <log_vformat+0x1a4>
    802025a0:	fe843783          	ld	a5,-24(s0)
    802025a4:	00178793          	addi	a5,a5,1
    802025a8:	fef43423          	sd	a5,-24(s0)
    802025ac:	00100793          	li	a5,1
    802025b0:	fcf42e23          	sw	a5,-36(s0)
    802025b4:	fe843783          	ld	a5,-24(s0)
    802025b8:	0007c783          	lbu	a5,0(a5)
    802025bc:	00078713          	mv	a4,a5
    802025c0:	06c00793          	li	a5,108
    802025c4:	00f71c63          	bne	a4,a5,802025dc <log_vformat+0x1a4>
    802025c8:	fe843783          	ld	a5,-24(s0)
    802025cc:	00178793          	addi	a5,a5,1
    802025d0:	fef43423          	sd	a5,-24(s0)
    802025d4:	00200793          	li	a5,2
    802025d8:	fcf42e23          	sw	a5,-36(s0)
    802025dc:	fe843783          	ld	a5,-24(s0)
    802025e0:	0007c783          	lbu	a5,0(a5)
    802025e4:	faf40ba3          	sb	a5,-73(s0)
    802025e8:	fb744783          	lbu	a5,-73(s0)
    802025ec:	0007879b          	sext.w	a5,a5
    802025f0:	07800713          	li	a4,120
    802025f4:	26e78063          	beq	a5,a4,80202854 <log_vformat+0x41c>
    802025f8:	07800713          	li	a4,120
    802025fc:	36f74663          	blt	a4,a5,80202968 <log_vformat+0x530>
    80202600:	07500713          	li	a4,117
    80202604:	1ae78a63          	beq	a5,a4,802027b8 <log_vformat+0x380>
    80202608:	07500713          	li	a4,117
    8020260c:	34f74e63          	blt	a4,a5,80202968 <log_vformat+0x530>
    80202610:	07300713          	li	a4,115
    80202614:	04e78863          	beq	a5,a4,80202664 <log_vformat+0x22c>
    80202618:	07300713          	li	a4,115
    8020261c:	34f74663          	blt	a4,a5,80202968 <log_vformat+0x530>
    80202620:	07000713          	li	a4,112
    80202624:	2ee78063          	beq	a5,a4,80202904 <log_vformat+0x4cc>
    80202628:	07000713          	li	a4,112
    8020262c:	32f74e63          	blt	a4,a5,80202968 <log_vformat+0x530>
    80202630:	06900713          	li	a4,105
    80202634:	08e78e63          	beq	a5,a4,802026d0 <log_vformat+0x298>
    80202638:	06900713          	li	a4,105
    8020263c:	32f74663          	blt	a4,a5,80202968 <log_vformat+0x530>
    80202640:	06400713          	li	a4,100
    80202644:	08e78663          	beq	a5,a4,802026d0 <log_vformat+0x298>
    80202648:	06400713          	li	a4,100
    8020264c:	30f74e63          	blt	a4,a5,80202968 <log_vformat+0x530>
    80202650:	05800713          	li	a4,88
    80202654:	20e78063          	beq	a5,a4,80202854 <log_vformat+0x41c>
    80202658:	06300713          	li	a4,99
    8020265c:	02e78e63          	beq	a5,a4,80202698 <log_vformat+0x260>
    80202660:	3080006f          	j	80202968 <log_vformat+0x530>
    80202664:	f7043783          	ld	a5,-144(s0)
    80202668:	00878713          	addi	a4,a5,8
    8020266c:	f6e43823          	sd	a4,-144(s0)
    80202670:	0007b783          	ld	a5,0(a5)
    80202674:	faf43423          	sd	a5,-88(s0)
    80202678:	f8442703          	lw	a4,-124(s0)
    8020267c:	f9040793          	addi	a5,s0,-112
    80202680:	fa843683          	ld	a3,-88(s0)
    80202684:	00070613          	mv	a2,a4
    80202688:	00078593          	mv	a1,a5
    8020268c:	f8843503          	ld	a0,-120(s0)
    80202690:	abdff0ef          	jal	8020214c <log_append_str>
    80202694:	3100006f          	j	802029a4 <log_vformat+0x56c>
    80202698:	f7043783          	ld	a5,-144(s0)
    8020269c:	00878713          	addi	a4,a5,8
    802026a0:	f6e43823          	sd	a4,-144(s0)
    802026a4:	0007a783          	lw	a5,0(a5)
    802026a8:	f8f42a23          	sw	a5,-108(s0)
    802026ac:	f9442783          	lw	a5,-108(s0)
    802026b0:	0ff7f693          	zext.b	a3,a5
    802026b4:	f8442703          	lw	a4,-124(s0)
    802026b8:	f9040793          	addi	a5,s0,-112
    802026bc:	00070613          	mv	a2,a4
    802026c0:	00078593          	mv	a1,a5
    802026c4:	f8843503          	ld	a0,-120(s0)
    802026c8:	a01ff0ef          	jal	802020c8 <log_append_char>
    802026cc:	2d80006f          	j	802029a4 <log_vformat+0x56c>
    802026d0:	fdc42783          	lw	a5,-36(s0)
    802026d4:	0007871b          	sext.w	a4,a5
    802026d8:	00200793          	li	a5,2
    802026dc:	00f71e63          	bne	a4,a5,802026f8 <log_vformat+0x2c0>
    802026e0:	f7043783          	ld	a5,-144(s0)
    802026e4:	00878713          	addi	a4,a5,8
    802026e8:	f6e43823          	sd	a4,-144(s0)
    802026ec:	0007b783          	ld	a5,0(a5)
    802026f0:	fcf43823          	sd	a5,-48(s0)
    802026f4:	0400006f          	j	80202734 <log_vformat+0x2fc>
    802026f8:	fdc42783          	lw	a5,-36(s0)
    802026fc:	0007871b          	sext.w	a4,a5
    80202700:	00100793          	li	a5,1
    80202704:	00f71e63          	bne	a4,a5,80202720 <log_vformat+0x2e8>
    80202708:	f7043783          	ld	a5,-144(s0)
    8020270c:	00878713          	addi	a4,a5,8
    80202710:	f6e43823          	sd	a4,-144(s0)
    80202714:	0007b783          	ld	a5,0(a5)
    80202718:	fcf43823          	sd	a5,-48(s0)
    8020271c:	0180006f          	j	80202734 <log_vformat+0x2fc>
    80202720:	f7043783          	ld	a5,-144(s0)
    80202724:	00878713          	addi	a4,a5,8
    80202728:	f6e43823          	sd	a4,-144(s0)
    8020272c:	0007a783          	lw	a5,0(a5)
    80202730:	fcf43823          	sd	a5,-48(s0)
    80202734:	fd043783          	ld	a5,-48(s0)
    80202738:	0407d463          	bgez	a5,80202780 <log_vformat+0x348>
    8020273c:	f8442703          	lw	a4,-124(s0)
    80202740:	f9040793          	addi	a5,s0,-112
    80202744:	02d00693          	li	a3,45
    80202748:	00070613          	mv	a2,a4
    8020274c:	00078593          	mv	a1,a5
    80202750:	f8843503          	ld	a0,-120(s0)
    80202754:	975ff0ef          	jal	802020c8 <log_append_char>
    80202758:	fd043783          	ld	a5,-48(s0)
    8020275c:	40f007b3          	neg	a5,a5
    80202760:	fcf43423          	sd	a5,-56(s0)
    80202764:	fe042783          	lw	a5,-32(s0)
    80202768:	0007879b          	sext.w	a5,a5
    8020276c:	00f05e63          	blez	a5,80202788 <log_vformat+0x350>
    80202770:	fe042783          	lw	a5,-32(s0)
    80202774:	fff7879b          	addiw	a5,a5,-1
    80202778:	fef42023          	sw	a5,-32(s0)
    8020277c:	00c0006f          	j	80202788 <log_vformat+0x350>
    80202780:	fd043783          	ld	a5,-48(s0)
    80202784:	fcf43423          	sd	a5,-56(s0)
    80202788:	fe744703          	lbu	a4,-25(s0)
    8020278c:	fe042783          	lw	a5,-32(s0)
    80202790:	f8442603          	lw	a2,-124(s0)
    80202794:	f9040593          	addi	a1,s0,-112
    80202798:	00070893          	mv	a7,a4
    8020279c:	00078813          	mv	a6,a5
    802027a0:	00000793          	li	a5,0
    802027a4:	00a00713          	li	a4,10
    802027a8:	fc843683          	ld	a3,-56(s0)
    802027ac:	f8843503          	ld	a0,-120(s0)
    802027b0:	a49ff0ef          	jal	802021f8 <log_append_uint>
    802027b4:	1f00006f          	j	802029a4 <log_vformat+0x56c>
    802027b8:	fdc42783          	lw	a5,-36(s0)
    802027bc:	0007871b          	sext.w	a4,a5
    802027c0:	00200793          	li	a5,2
    802027c4:	00f71e63          	bne	a4,a5,802027e0 <log_vformat+0x3a8>
    802027c8:	f7043783          	ld	a5,-144(s0)
    802027cc:	00878713          	addi	a4,a5,8
    802027d0:	f6e43823          	sd	a4,-144(s0)
    802027d4:	0007b783          	ld	a5,0(a5)
    802027d8:	fcf43023          	sd	a5,-64(s0)
    802027dc:	0480006f          	j	80202824 <log_vformat+0x3ec>
    802027e0:	fdc42783          	lw	a5,-36(s0)
    802027e4:	0007871b          	sext.w	a4,a5
    802027e8:	00100793          	li	a5,1
    802027ec:	00f71e63          	bne	a4,a5,80202808 <log_vformat+0x3d0>
    802027f0:	f7043783          	ld	a5,-144(s0)
    802027f4:	00878713          	addi	a4,a5,8
    802027f8:	f6e43823          	sd	a4,-144(s0)
    802027fc:	0007b783          	ld	a5,0(a5)
    80202800:	fcf43023          	sd	a5,-64(s0)
    80202804:	0200006f          	j	80202824 <log_vformat+0x3ec>
    80202808:	f7043783          	ld	a5,-144(s0)
    8020280c:	00878713          	addi	a4,a5,8
    80202810:	f6e43823          	sd	a4,-144(s0)
    80202814:	0007a783          	lw	a5,0(a5)
    80202818:	02079793          	slli	a5,a5,0x20
    8020281c:	0207d793          	srli	a5,a5,0x20
    80202820:	fcf43023          	sd	a5,-64(s0)
    80202824:	fe744703          	lbu	a4,-25(s0)
    80202828:	fe042783          	lw	a5,-32(s0)
    8020282c:	f8442603          	lw	a2,-124(s0)
    80202830:	f9040593          	addi	a1,s0,-112
    80202834:	00070893          	mv	a7,a4
    80202838:	00078813          	mv	a6,a5
    8020283c:	00000793          	li	a5,0
    80202840:	00a00713          	li	a4,10
    80202844:	fc043683          	ld	a3,-64(s0)
    80202848:	f8843503          	ld	a0,-120(s0)
    8020284c:	9adff0ef          	jal	802021f8 <log_append_uint>
    80202850:	1540006f          	j	802029a4 <log_vformat+0x56c>
    80202854:	fdc42783          	lw	a5,-36(s0)
    80202858:	0007871b          	sext.w	a4,a5
    8020285c:	00200793          	li	a5,2
    80202860:	00f71e63          	bne	a4,a5,8020287c <log_vformat+0x444>
    80202864:	f7043783          	ld	a5,-144(s0)
    80202868:	00878713          	addi	a4,a5,8
    8020286c:	f6e43823          	sd	a4,-144(s0)
    80202870:	0007b783          	ld	a5,0(a5)
    80202874:	faf43c23          	sd	a5,-72(s0)
    80202878:	0480006f          	j	802028c0 <log_vformat+0x488>
    8020287c:	fdc42783          	lw	a5,-36(s0)
    80202880:	0007871b          	sext.w	a4,a5
    80202884:	00100793          	li	a5,1
    80202888:	00f71e63          	bne	a4,a5,802028a4 <log_vformat+0x46c>
    8020288c:	f7043783          	ld	a5,-144(s0)
    80202890:	00878713          	addi	a4,a5,8
    80202894:	f6e43823          	sd	a4,-144(s0)
    80202898:	0007b783          	ld	a5,0(a5)
    8020289c:	faf43c23          	sd	a5,-72(s0)
    802028a0:	0200006f          	j	802028c0 <log_vformat+0x488>
    802028a4:	f7043783          	ld	a5,-144(s0)
    802028a8:	00878713          	addi	a4,a5,8
    802028ac:	f6e43823          	sd	a4,-144(s0)
    802028b0:	0007a783          	lw	a5,0(a5)
    802028b4:	02079793          	slli	a5,a5,0x20
    802028b8:	0207d793          	srli	a5,a5,0x20
    802028bc:	faf43c23          	sd	a5,-72(s0)
    802028c0:	fb744783          	lbu	a5,-73(s0)
    802028c4:	0007871b          	sext.w	a4,a5
    802028c8:	05800793          	li	a5,88
    802028cc:	40f707b3          	sub	a5,a4,a5
    802028d0:	0017b793          	seqz	a5,a5
    802028d4:	0ff7f793          	zext.b	a5,a5
    802028d8:	fe744683          	lbu	a3,-25(s0)
    802028dc:	fe042703          	lw	a4,-32(s0)
    802028e0:	f8442603          	lw	a2,-124(s0)
    802028e4:	f9040593          	addi	a1,s0,-112
    802028e8:	00068893          	mv	a7,a3
    802028ec:	00070813          	mv	a6,a4
    802028f0:	01000713          	li	a4,16
    802028f4:	fb843683          	ld	a3,-72(s0)
    802028f8:	f8843503          	ld	a0,-120(s0)
    802028fc:	8fdff0ef          	jal	802021f8 <log_append_uint>
    80202900:	0a40006f          	j	802029a4 <log_vformat+0x56c>
    80202904:	f7043783          	ld	a5,-144(s0)
    80202908:	00878713          	addi	a4,a5,8
    8020290c:	f6e43823          	sd	a4,-144(s0)
    80202910:	0007b783          	ld	a5,0(a5)
    80202914:	faf43023          	sd	a5,-96(s0)
    80202918:	f8442703          	lw	a4,-124(s0)
    8020291c:	f9040793          	addi	a5,s0,-112
    80202920:	00001697          	auipc	a3,0x1
    80202924:	18068693          	addi	a3,a3,384 # 80203aa0 <__func__.0+0x18>
    80202928:	00070613          	mv	a2,a4
    8020292c:	00078593          	mv	a1,a5
    80202930:	f8843503          	ld	a0,-120(s0)
    80202934:	819ff0ef          	jal	8020214c <log_append_str>
    80202938:	fa043783          	ld	a5,-96(s0)
    8020293c:	f8f43c23          	sd	a5,-104(s0)
    80202940:	f8442603          	lw	a2,-124(s0)
    80202944:	f9040593          	addi	a1,s0,-112
    80202948:	02000893          	li	a7,32
    8020294c:	00000813          	li	a6,0
    80202950:	00000793          	li	a5,0
    80202954:	01000713          	li	a4,16
    80202958:	f9843683          	ld	a3,-104(s0)
    8020295c:	f8843503          	ld	a0,-120(s0)
    80202960:	899ff0ef          	jal	802021f8 <log_append_uint>
    80202964:	0400006f          	j	802029a4 <log_vformat+0x56c>
    80202968:	f8442703          	lw	a4,-124(s0)
    8020296c:	f9040793          	addi	a5,s0,-112
    80202970:	02500693          	li	a3,37
    80202974:	00070613          	mv	a2,a4
    80202978:	00078593          	mv	a1,a5
    8020297c:	f8843503          	ld	a0,-120(s0)
    80202980:	f48ff0ef          	jal	802020c8 <log_append_char>
    80202984:	fb744683          	lbu	a3,-73(s0)
    80202988:	f8442703          	lw	a4,-124(s0)
    8020298c:	f9040793          	addi	a5,s0,-112
    80202990:	00070613          	mv	a2,a4
    80202994:	00078593          	mv	a1,a5
    80202998:	f8843503          	ld	a0,-120(s0)
    8020299c:	f2cff0ef          	jal	802020c8 <log_append_char>
    802029a0:	00000013          	nop
    802029a4:	fe843783          	ld	a5,-24(s0)
    802029a8:	00178793          	addi	a5,a5,1
    802029ac:	fef43423          	sd	a5,-24(s0)
    802029b0:	fe843783          	ld	a5,-24(s0)
    802029b4:	0007c783          	lbu	a5,0(a5)
    802029b8:	00078c63          	beqz	a5,802029d0 <log_vformat+0x598>
    802029bc:	f8442783          	lw	a5,-124(s0)
    802029c0:	fff7879b          	addiw	a5,a5,-1
    802029c4:	0007871b          	sext.w	a4,a5
    802029c8:	f9042783          	lw	a5,-112(s0)
    802029cc:	aae7c0e3          	blt	a5,a4,8020246c <log_vformat+0x34>
    802029d0:	f9042783          	lw	a5,-112(s0)
    802029d4:	00078713          	mv	a4,a5
    802029d8:	f8843783          	ld	a5,-120(s0)
    802029dc:	00e787b3          	add	a5,a5,a4
    802029e0:	00078023          	sb	zero,0(a5)
    802029e4:	f9042783          	lw	a5,-112(s0)
    802029e8:	00078513          	mv	a0,a5
    802029ec:	08813083          	ld	ra,136(sp)
    802029f0:	08013403          	ld	s0,128(sp)
    802029f4:	09010113          	addi	sp,sp,144
    802029f8:	00008067          	ret

00000000802029fc <log_isprint>:
    802029fc:	fe010113          	addi	sp,sp,-32
    80202a00:	00113c23          	sd	ra,24(sp)
    80202a04:	00813823          	sd	s0,16(sp)
    80202a08:	02010413          	addi	s0,sp,32
    80202a0c:	00050793          	mv	a5,a0
    80202a10:	fef407a3          	sb	a5,-17(s0)
    80202a14:	fef44783          	lbu	a5,-17(s0)
    80202a18:	0ff7f713          	zext.b	a4,a5
    80202a1c:	01f00793          	li	a5,31
    80202a20:	00e7fe63          	bgeu	a5,a4,80202a3c <log_isprint+0x40>
    80202a24:	fef44783          	lbu	a5,-17(s0)
    80202a28:	0ff7f713          	zext.b	a4,a5
    80202a2c:	07e00793          	li	a5,126
    80202a30:	00e7e663          	bltu	a5,a4,80202a3c <log_isprint+0x40>
    80202a34:	00100793          	li	a5,1
    80202a38:	0080006f          	j	80202a40 <log_isprint+0x44>
    80202a3c:	00000793          	li	a5,0
    80202a40:	00078513          	mv	a0,a5
    80202a44:	01813083          	ld	ra,24(sp)
    80202a48:	01013403          	ld	s0,16(sp)
    80202a4c:	02010113          	addi	sp,sp,32
    80202a50:	00008067          	ret

0000000080202a54 <log_init>:
    80202a54:	fe010113          	addi	sp,sp,-32
    80202a58:	00113c23          	sd	ra,24(sp)
    80202a5c:	00813823          	sd	s0,16(sp)
    80202a60:	02010413          	addi	s0,sp,32
    80202a64:	fea43423          	sd	a0,-24(s0)
    80202a68:	0000d797          	auipc	a5,0xd
    80202a6c:	ea878793          	addi	a5,a5,-344 # 8020f910 <s_write_fn>
    80202a70:	fe843703          	ld	a4,-24(s0)
    80202a74:	00e7b023          	sd	a4,0(a5)
    80202a78:	00000013          	nop
    80202a7c:	01813083          	ld	ra,24(sp)
    80202a80:	01013403          	ld	s0,16(sp)
    80202a84:	02010113          	addi	sp,sp,32
    80202a88:	00008067          	ret

0000000080202a8c <log_set_level>:
    80202a8c:	fe010113          	addi	sp,sp,-32
    80202a90:	00113c23          	sd	ra,24(sp)
    80202a94:	00813823          	sd	s0,16(sp)
    80202a98:	02010413          	addi	s0,sp,32
    80202a9c:	00050793          	mv	a5,a0
    80202aa0:	fef42623          	sw	a5,-20(s0)
    80202aa4:	00001797          	auipc	a5,0x1
    80202aa8:	0dc78793          	addi	a5,a5,220 # 80203b80 <s_log_level>
    80202aac:	fec42703          	lw	a4,-20(s0)
    80202ab0:	00e7a023          	sw	a4,0(a5)
    80202ab4:	00000013          	nop
    80202ab8:	01813083          	ld	ra,24(sp)
    80202abc:	01013403          	ld	s0,16(sp)
    80202ac0:	02010113          	addi	sp,sp,32
    80202ac4:	00008067          	ret

0000000080202ac8 <log_get_level>:
    80202ac8:	ff010113          	addi	sp,sp,-16
    80202acc:	00113423          	sd	ra,8(sp)
    80202ad0:	00813023          	sd	s0,0(sp)
    80202ad4:	01010413          	addi	s0,sp,16
    80202ad8:	00001797          	auipc	a5,0x1
    80202adc:	0a878793          	addi	a5,a5,168 # 80203b80 <s_log_level>
    80202ae0:	0007a783          	lw	a5,0(a5)
    80202ae4:	0007879b          	sext.w	a5,a5
    80202ae8:	00078513          	mv	a0,a5
    80202aec:	00813083          	ld	ra,8(sp)
    80202af0:	00013403          	ld	s0,0(sp)
    80202af4:	01010113          	addi	sp,sp,16
    80202af8:	00008067          	ret

0000000080202afc <log_set_path_mode>:
    80202afc:	fe010113          	addi	sp,sp,-32
    80202b00:	00113c23          	sd	ra,24(sp)
    80202b04:	00813823          	sd	s0,16(sp)
    80202b08:	02010413          	addi	s0,sp,32
    80202b0c:	00050793          	mv	a5,a0
    80202b10:	fef42623          	sw	a5,-20(s0)
    80202b14:	00001797          	auipc	a5,0x1
    80202b18:	07078793          	addi	a5,a5,112 # 80203b84 <s_path_mode>
    80202b1c:	fec42703          	lw	a4,-20(s0)
    80202b20:	00e7a023          	sw	a4,0(a5)
    80202b24:	00000013          	nop
    80202b28:	01813083          	ld	ra,24(sp)
    80202b2c:	01013403          	ld	s0,16(sp)
    80202b30:	02010113          	addi	sp,sp,32
    80202b34:	00008067          	ret

0000000080202b38 <log_get_path_mode>:
    80202b38:	ff010113          	addi	sp,sp,-16
    80202b3c:	00113423          	sd	ra,8(sp)
    80202b40:	00813023          	sd	s0,0(sp)
    80202b44:	01010413          	addi	s0,sp,16
    80202b48:	00001797          	auipc	a5,0x1
    80202b4c:	03c78793          	addi	a5,a5,60 # 80203b84 <s_path_mode>
    80202b50:	0007a783          	lw	a5,0(a5)
    80202b54:	0007879b          	sext.w	a5,a5
    80202b58:	00078513          	mv	a0,a5
    80202b5c:	00813083          	ld	ra,8(sp)
    80202b60:	00013403          	ld	s0,0(sp)
    80202b64:	01010113          	addi	sp,sp,16
    80202b68:	00008067          	ret

0000000080202b6c <log_level_to_string>:
    80202b6c:	fe010113          	addi	sp,sp,-32
    80202b70:	00113c23          	sd	ra,24(sp)
    80202b74:	00813823          	sd	s0,16(sp)
    80202b78:	02010413          	addi	s0,sp,32
    80202b7c:	00050793          	mv	a5,a0
    80202b80:	fef42623          	sw	a5,-20(s0)
    80202b84:	fec42783          	lw	a5,-20(s0)
    80202b88:	0007871b          	sext.w	a4,a5
    80202b8c:	00500793          	li	a5,5
    80202b90:	0af70463          	beq	a4,a5,80202c38 <log_level_to_string+0xcc>
    80202b94:	fec42783          	lw	a5,-20(s0)
    80202b98:	0007871b          	sext.w	a4,a5
    80202b9c:	00500793          	li	a5,5
    80202ba0:	0ae7e263          	bltu	a5,a4,80202c44 <log_level_to_string+0xd8>
    80202ba4:	fec42783          	lw	a5,-20(s0)
    80202ba8:	0007871b          	sext.w	a4,a5
    80202bac:	00400793          	li	a5,4
    80202bb0:	06f70e63          	beq	a4,a5,80202c2c <log_level_to_string+0xc0>
    80202bb4:	fec42783          	lw	a5,-20(s0)
    80202bb8:	0007871b          	sext.w	a4,a5
    80202bbc:	00400793          	li	a5,4
    80202bc0:	08e7e263          	bltu	a5,a4,80202c44 <log_level_to_string+0xd8>
    80202bc4:	fec42783          	lw	a5,-20(s0)
    80202bc8:	0007871b          	sext.w	a4,a5
    80202bcc:	00300793          	li	a5,3
    80202bd0:	04f70863          	beq	a4,a5,80202c20 <log_level_to_string+0xb4>
    80202bd4:	fec42783          	lw	a5,-20(s0)
    80202bd8:	0007871b          	sext.w	a4,a5
    80202bdc:	00300793          	li	a5,3
    80202be0:	06e7e263          	bltu	a5,a4,80202c44 <log_level_to_string+0xd8>
    80202be4:	fec42783          	lw	a5,-20(s0)
    80202be8:	0007871b          	sext.w	a4,a5
    80202bec:	00100793          	li	a5,1
    80202bf0:	00f70c63          	beq	a4,a5,80202c08 <log_level_to_string+0x9c>
    80202bf4:	fec42783          	lw	a5,-20(s0)
    80202bf8:	0007871b          	sext.w	a4,a5
    80202bfc:	00200793          	li	a5,2
    80202c00:	00f70a63          	beq	a4,a5,80202c14 <log_level_to_string+0xa8>
    80202c04:	0400006f          	j	80202c44 <log_level_to_string+0xd8>
    80202c08:	00001797          	auipc	a5,0x1
    80202c0c:	ea078793          	addi	a5,a5,-352 # 80203aa8 <__func__.0+0x20>
    80202c10:	03c0006f          	j	80202c4c <log_level_to_string+0xe0>
    80202c14:	00001797          	auipc	a5,0x1
    80202c18:	e9c78793          	addi	a5,a5,-356 # 80203ab0 <__func__.0+0x28>
    80202c1c:	0300006f          	j	80202c4c <log_level_to_string+0xe0>
    80202c20:	00001797          	auipc	a5,0x1
    80202c24:	e9878793          	addi	a5,a5,-360 # 80203ab8 <__func__.0+0x30>
    80202c28:	0240006f          	j	80202c4c <log_level_to_string+0xe0>
    80202c2c:	00001797          	auipc	a5,0x1
    80202c30:	e9478793          	addi	a5,a5,-364 # 80203ac0 <__func__.0+0x38>
    80202c34:	0180006f          	j	80202c4c <log_level_to_string+0xe0>
    80202c38:	00001797          	auipc	a5,0x1
    80202c3c:	e9078793          	addi	a5,a5,-368 # 80203ac8 <__func__.0+0x40>
    80202c40:	00c0006f          	j	80202c4c <log_level_to_string+0xe0>
    80202c44:	00001797          	auipc	a5,0x1
    80202c48:	e8c78793          	addi	a5,a5,-372 # 80203ad0 <__func__.0+0x48>
    80202c4c:	00078513          	mv	a0,a5
    80202c50:	01813083          	ld	ra,24(sp)
    80202c54:	01013403          	ld	s0,16(sp)
    80202c58:	02010113          	addi	sp,sp,32
    80202c5c:	00008067          	ret

0000000080202c60 <log_set_timestamp_fn>:
    80202c60:	fe010113          	addi	sp,sp,-32
    80202c64:	00113c23          	sd	ra,24(sp)
    80202c68:	00813823          	sd	s0,16(sp)
    80202c6c:	02010413          	addi	s0,sp,32
    80202c70:	fea43423          	sd	a0,-24(s0)
    80202c74:	0000d797          	auipc	a5,0xd
    80202c78:	ca478793          	addi	a5,a5,-860 # 8020f918 <s_ts_fn>
    80202c7c:	fe843703          	ld	a4,-24(s0)
    80202c80:	00e7b023          	sd	a4,0(a5)
    80202c84:	00000013          	nop
    80202c88:	01813083          	ld	ra,24(sp)
    80202c8c:	01013403          	ld	s0,16(sp)
    80202c90:	02010113          	addi	sp,sp,32
    80202c94:	00008067          	ret

0000000080202c98 <ring_write>:
    80202c98:	fd010113          	addi	sp,sp,-48
    80202c9c:	02113423          	sd	ra,40(sp)
    80202ca0:	02813023          	sd	s0,32(sp)
    80202ca4:	03010413          	addi	s0,sp,48
    80202ca8:	fca43c23          	sd	a0,-40(s0)
    80202cac:	fcb43823          	sd	a1,-48(s0)
    80202cb0:	fd043783          	ld	a5,-48(s0)
    80202cb4:	10078863          	beqz	a5,80202dc4 <ring_write+0x12c>
    80202cb8:	fd043703          	ld	a4,-48(s0)
    80202cbc:	000017b7          	lui	a5,0x1
    80202cc0:	80078793          	addi	a5,a5,-2048 # 800 <TF_SIZE+0x6e0>
    80202cc4:	02e7f263          	bgeu	a5,a4,80202ce8 <ring_write+0x50>
    80202cc8:	fd043783          	ld	a5,-48(s0)
    80202ccc:	80078793          	addi	a5,a5,-2048
    80202cd0:	fd843703          	ld	a4,-40(s0)
    80202cd4:	00f707b3          	add	a5,a4,a5
    80202cd8:	fcf43c23          	sd	a5,-40(s0)
    80202cdc:	000017b7          	lui	a5,0x1
    80202ce0:	80078793          	addi	a5,a5,-2048 # 800 <TF_SIZE+0x6e0>
    80202ce4:	fcf43823          	sd	a5,-48(s0)
    80202ce8:	fe043423          	sd	zero,-24(s0)
    80202cec:	0500006f          	j	80202d3c <ring_write+0xa4>
    80202cf0:	0000d797          	auipc	a5,0xd
    80202cf4:	43078793          	addi	a5,a5,1072 # 80210120 <s_ring_head>
    80202cf8:	0007b703          	ld	a4,0(a5)
    80202cfc:	fe843783          	ld	a5,-24(s0)
    80202d00:	00f707b3          	add	a5,a4,a5
    80202d04:	7ff7f793          	andi	a5,a5,2047
    80202d08:	fef43023          	sd	a5,-32(s0)
    80202d0c:	fd843703          	ld	a4,-40(s0)
    80202d10:	fe843783          	ld	a5,-24(s0)
    80202d14:	00f707b3          	add	a5,a4,a5
    80202d18:	0007c703          	lbu	a4,0(a5)
    80202d1c:	0000d697          	auipc	a3,0xd
    80202d20:	c0468693          	addi	a3,a3,-1020 # 8020f920 <s_ring_buf>
    80202d24:	fe043783          	ld	a5,-32(s0)
    80202d28:	00f687b3          	add	a5,a3,a5
    80202d2c:	00e78023          	sb	a4,0(a5)
    80202d30:	fe843783          	ld	a5,-24(s0)
    80202d34:	00178793          	addi	a5,a5,1
    80202d38:	fef43423          	sd	a5,-24(s0)
    80202d3c:	fe843703          	ld	a4,-24(s0)
    80202d40:	fd043783          	ld	a5,-48(s0)
    80202d44:	faf766e3          	bltu	a4,a5,80202cf0 <ring_write+0x58>
    80202d48:	0000d797          	auipc	a5,0xd
    80202d4c:	3d878793          	addi	a5,a5,984 # 80210120 <s_ring_head>
    80202d50:	0007b703          	ld	a4,0(a5)
    80202d54:	fd043783          	ld	a5,-48(s0)
    80202d58:	00f707b3          	add	a5,a4,a5
    80202d5c:	7ff7f713          	andi	a4,a5,2047
    80202d60:	0000d797          	auipc	a5,0xd
    80202d64:	3c078793          	addi	a5,a5,960 # 80210120 <s_ring_head>
    80202d68:	00e7b023          	sd	a4,0(a5)
    80202d6c:	0000d797          	auipc	a5,0xd
    80202d70:	3bc78793          	addi	a5,a5,956 # 80210128 <s_ring_size>
    80202d74:	0007b703          	ld	a4,0(a5)
    80202d78:	fd043783          	ld	a5,-48(s0)
    80202d7c:	00f70733          	add	a4,a4,a5
    80202d80:	7ff00793          	li	a5,2047
    80202d84:	00e7fe63          	bgeu	a5,a4,80202da0 <ring_write+0x108>
    80202d88:	0000d797          	auipc	a5,0xd
    80202d8c:	3a078793          	addi	a5,a5,928 # 80210128 <s_ring_size>
    80202d90:	00001737          	lui	a4,0x1
    80202d94:	80070713          	addi	a4,a4,-2048 # 800 <TF_SIZE+0x6e0>
    80202d98:	00e7b023          	sd	a4,0(a5)
    80202d9c:	02c0006f          	j	80202dc8 <ring_write+0x130>
    80202da0:	0000d797          	auipc	a5,0xd
    80202da4:	38878793          	addi	a5,a5,904 # 80210128 <s_ring_size>
    80202da8:	0007b703          	ld	a4,0(a5)
    80202dac:	fd043783          	ld	a5,-48(s0)
    80202db0:	00f70733          	add	a4,a4,a5
    80202db4:	0000d797          	auipc	a5,0xd
    80202db8:	37478793          	addi	a5,a5,884 # 80210128 <s_ring_size>
    80202dbc:	00e7b023          	sd	a4,0(a5)
    80202dc0:	0080006f          	j	80202dc8 <ring_write+0x130>
    80202dc4:	00000013          	nop
    80202dc8:	02813083          	ld	ra,40(sp)
    80202dcc:	02013403          	ld	s0,32(sp)
    80202dd0:	03010113          	addi	sp,sp,48
    80202dd4:	00008067          	ret

0000000080202dd8 <log_vprintf>:
    80202dd8:	e9010113          	addi	sp,sp,-368
    80202ddc:	16113423          	sd	ra,360(sp)
    80202de0:	16813023          	sd	s0,352(sp)
    80202de4:	17010413          	addi	s0,sp,368
    80202de8:	eab43823          	sd	a1,-336(s0)
    80202dec:	ead43423          	sd	a3,-344(s0)
    80202df0:	eae43023          	sd	a4,-352(s0)
    80202df4:	e8f43c23          	sd	a5,-360(s0)
    80202df8:	00050793          	mv	a5,a0
    80202dfc:	eaf42e23          	sw	a5,-324(s0)
    80202e00:	00060793          	mv	a5,a2
    80202e04:	eaf42c23          	sw	a5,-328(s0)
    80202e08:	ec042623          	sw	zero,-308(s0)
    80202e0c:	ebc42783          	lw	a5,-324(s0)
    80202e10:	0007879b          	sext.w	a5,a5
    80202e14:	02078063          	beqz	a5,80202e34 <log_vprintf+0x5c>
    80202e18:	00001797          	auipc	a5,0x1
    80202e1c:	d6878793          	addi	a5,a5,-664 # 80203b80 <s_log_level>
    80202e20:	0007a783          	lw	a5,0(a5)
    80202e24:	0007879b          	sext.w	a5,a5
    80202e28:	ebc42703          	lw	a4,-324(s0)
    80202e2c:	0007071b          	sext.w	a4,a4
    80202e30:	00e7f663          	bgeu	a5,a4,80202e3c <log_vprintf+0x64>
    80202e34:	00000793          	li	a5,0
    80202e38:	3540006f          	j	8020318c <log_vprintf+0x3b4>
    80202e3c:	0000d797          	auipc	a5,0xd
    80202e40:	adc78793          	addi	a5,a5,-1316 # 8020f918 <s_ts_fn>
    80202e44:	0007b783          	ld	a5,0(a5)
    80202e48:	08078a63          	beqz	a5,80202edc <log_vprintf+0x104>
    80202e4c:	0000d797          	auipc	a5,0xd
    80202e50:	acc78793          	addi	a5,a5,-1332 # 8020f918 <s_ts_fn>
    80202e54:	0007b783          	ld	a5,0(a5)
    80202e58:	000780e7          	jalr	a5
    80202e5c:	00050793          	mv	a5,a0
    80202e60:	fcf42a23          	sw	a5,-44(s0)
    80202e64:	ecc40713          	addi	a4,s0,-308
    80202e68:	ed040793          	addi	a5,s0,-304
    80202e6c:	05b00693          	li	a3,91
    80202e70:	10000613          	li	a2,256
    80202e74:	00070593          	mv	a1,a4
    80202e78:	00078513          	mv	a0,a5
    80202e7c:	a4cff0ef          	jal	802020c8 <log_append_char>
    80202e80:	fd446683          	lwu	a3,-44(s0)
    80202e84:	ecc40593          	addi	a1,s0,-308
    80202e88:	ed040513          	addi	a0,s0,-304
    80202e8c:	02000893          	li	a7,32
    80202e90:	00000813          	li	a6,0
    80202e94:	00000793          	li	a5,0
    80202e98:	00a00713          	li	a4,10
    80202e9c:	10000613          	li	a2,256
    80202ea0:	b58ff0ef          	jal	802021f8 <log_append_uint>
    80202ea4:	ecc40713          	addi	a4,s0,-308
    80202ea8:	ed040793          	addi	a5,s0,-304
    80202eac:	05d00693          	li	a3,93
    80202eb0:	10000613          	li	a2,256
    80202eb4:	00070593          	mv	a1,a4
    80202eb8:	00078513          	mv	a0,a5
    80202ebc:	a0cff0ef          	jal	802020c8 <log_append_char>
    80202ec0:	ecc40713          	addi	a4,s0,-308
    80202ec4:	ed040793          	addi	a5,s0,-304
    80202ec8:	02000693          	li	a3,32
    80202ecc:	10000613          	li	a2,256
    80202ed0:	00070593          	mv	a1,a4
    80202ed4:	00078513          	mv	a0,a5
    80202ed8:	9f0ff0ef          	jal	802020c8 <log_append_char>
    80202edc:	ecc40713          	addi	a4,s0,-308
    80202ee0:	ed040793          	addi	a5,s0,-304
    80202ee4:	05b00693          	li	a3,91
    80202ee8:	10000613          	li	a2,256
    80202eec:	00070593          	mv	a1,a4
    80202ef0:	00078513          	mv	a0,a5
    80202ef4:	9d4ff0ef          	jal	802020c8 <log_append_char>
    80202ef8:	ebc42783          	lw	a5,-324(s0)
    80202efc:	00078513          	mv	a0,a5
    80202f00:	c6dff0ef          	jal	80202b6c <log_level_to_string>
    80202f04:	00050693          	mv	a3,a0
    80202f08:	ecc40713          	addi	a4,s0,-308
    80202f0c:	ed040793          	addi	a5,s0,-304
    80202f10:	10000613          	li	a2,256
    80202f14:	00070593          	mv	a1,a4
    80202f18:	00078513          	mv	a0,a5
    80202f1c:	a30ff0ef          	jal	8020214c <log_append_str>
    80202f20:	ecc40713          	addi	a4,s0,-308
    80202f24:	ed040793          	addi	a5,s0,-304
    80202f28:	05d00693          	li	a3,93
    80202f2c:	10000613          	li	a2,256
    80202f30:	00070593          	mv	a1,a4
    80202f34:	00078513          	mv	a0,a5
    80202f38:	990ff0ef          	jal	802020c8 <log_append_char>
    80202f3c:	ecc40713          	addi	a4,s0,-308
    80202f40:	ed040793          	addi	a5,s0,-304
    80202f44:	02000693          	li	a3,32
    80202f48:	10000613          	li	a2,256
    80202f4c:	00070593          	mv	a1,a4
    80202f50:	00078513          	mv	a0,a5
    80202f54:	974ff0ef          	jal	802020c8 <log_append_char>
    80202f58:	eb043783          	ld	a5,-336(s0)
    80202f5c:	10078c63          	beqz	a5,80203074 <log_vprintf+0x29c>
    80202f60:	00001797          	auipc	a5,0x1
    80202f64:	c2478793          	addi	a5,a5,-988 # 80203b84 <s_path_mode>
    80202f68:	0007a783          	lw	a5,0(a5)
    80202f6c:	0007879b          	sext.w	a5,a5
    80202f70:	10078263          	beqz	a5,80203074 <log_vprintf+0x29c>
    80202f74:	eb043783          	ld	a5,-336(s0)
    80202f78:	fef43423          	sd	a5,-24(s0)
    80202f7c:	00001797          	auipc	a5,0x1
    80202f80:	c0878793          	addi	a5,a5,-1016 # 80203b84 <s_path_mode>
    80202f84:	0007a783          	lw	a5,0(a5)
    80202f88:	0007871b          	sext.w	a4,a5
    80202f8c:	00100793          	li	a5,1
    80202f90:	06f71663          	bne	a4,a5,80202ffc <log_vprintf+0x224>
    80202f94:	eb043783          	ld	a5,-336(s0)
    80202f98:	fef43023          	sd	a5,-32(s0)
    80202f9c:	eb043783          	ld	a5,-336(s0)
    80202fa0:	fcf43c23          	sd	a5,-40(s0)
    80202fa4:	0440006f          	j	80202fe8 <log_vprintf+0x210>
    80202fa8:	fd843783          	ld	a5,-40(s0)
    80202fac:	0007c783          	lbu	a5,0(a5)
    80202fb0:	00078713          	mv	a4,a5
    80202fb4:	02f00793          	li	a5,47
    80202fb8:	00f70c63          	beq	a4,a5,80202fd0 <log_vprintf+0x1f8>
    80202fbc:	fd843783          	ld	a5,-40(s0)
    80202fc0:	0007c783          	lbu	a5,0(a5)
    80202fc4:	00078713          	mv	a4,a5
    80202fc8:	05c00793          	li	a5,92
    80202fcc:	00f71863          	bne	a4,a5,80202fdc <log_vprintf+0x204>
    80202fd0:	fd843783          	ld	a5,-40(s0)
    80202fd4:	00178793          	addi	a5,a5,1
    80202fd8:	fef43023          	sd	a5,-32(s0)
    80202fdc:	fd843783          	ld	a5,-40(s0)
    80202fe0:	00178793          	addi	a5,a5,1
    80202fe4:	fcf43c23          	sd	a5,-40(s0)
    80202fe8:	fd843783          	ld	a5,-40(s0)
    80202fec:	0007c783          	lbu	a5,0(a5)
    80202ff0:	fa079ce3          	bnez	a5,80202fa8 <log_vprintf+0x1d0>
    80202ff4:	fe043783          	ld	a5,-32(s0)
    80202ff8:	fef43423          	sd	a5,-24(s0)
    80202ffc:	ecc40713          	addi	a4,s0,-308
    80203000:	ed040793          	addi	a5,s0,-304
    80203004:	fe843683          	ld	a3,-24(s0)
    80203008:	10000613          	li	a2,256
    8020300c:	00070593          	mv	a1,a4
    80203010:	00078513          	mv	a0,a5
    80203014:	938ff0ef          	jal	8020214c <log_append_str>
    80203018:	ecc40713          	addi	a4,s0,-308
    8020301c:	ed040793          	addi	a5,s0,-304
    80203020:	03a00693          	li	a3,58
    80203024:	10000613          	li	a2,256
    80203028:	00070593          	mv	a1,a4
    8020302c:	00078513          	mv	a0,a5
    80203030:	898ff0ef          	jal	802020c8 <log_append_char>
    80203034:	eb842683          	lw	a3,-328(s0)
    80203038:	ecc40593          	addi	a1,s0,-308
    8020303c:	ed040513          	addi	a0,s0,-304
    80203040:	02000893          	li	a7,32
    80203044:	00000813          	li	a6,0
    80203048:	00000793          	li	a5,0
    8020304c:	00a00713          	li	a4,10
    80203050:	10000613          	li	a2,256
    80203054:	9a4ff0ef          	jal	802021f8 <log_append_uint>
    80203058:	ecc40713          	addi	a4,s0,-308
    8020305c:	ed040793          	addi	a5,s0,-304
    80203060:	02000693          	li	a3,32
    80203064:	10000613          	li	a2,256
    80203068:	00070593          	mv	a1,a4
    8020306c:	00078513          	mv	a0,a5
    80203070:	858ff0ef          	jal	802020c8 <log_append_char>
    80203074:	ea843783          	ld	a5,-344(s0)
    80203078:	04078063          	beqz	a5,802030b8 <log_vprintf+0x2e0>
    8020307c:	ecc40713          	addi	a4,s0,-308
    80203080:	ed040793          	addi	a5,s0,-304
    80203084:	ea843683          	ld	a3,-344(s0)
    80203088:	10000613          	li	a2,256
    8020308c:	00070593          	mv	a1,a4
    80203090:	00078513          	mv	a0,a5
    80203094:	8b8ff0ef          	jal	8020214c <log_append_str>
    80203098:	ecc40713          	addi	a4,s0,-308
    8020309c:	ed040793          	addi	a5,s0,-304
    802030a0:	00001697          	auipc	a3,0x1
    802030a4:	a3868693          	addi	a3,a3,-1480 # 80203ad8 <__func__.0+0x50>
    802030a8:	10000613          	li	a2,256
    802030ac:	00070593          	mv	a1,a4
    802030b0:	00078513          	mv	a0,a5
    802030b4:	898ff0ef          	jal	8020214c <log_append_str>
    802030b8:	ecc42783          	lw	a5,-308(s0)
    802030bc:	00078713          	mv	a4,a5
    802030c0:	ed040793          	addi	a5,s0,-304
    802030c4:	00e78533          	add	a0,a5,a4
    802030c8:	ecc42783          	lw	a5,-308(s0)
    802030cc:	10000713          	li	a4,256
    802030d0:	40f707bb          	subw	a5,a4,a5
    802030d4:	0007879b          	sext.w	a5,a5
    802030d8:	e9843683          	ld	a3,-360(s0)
    802030dc:	ea043603          	ld	a2,-352(s0)
    802030e0:	00078593          	mv	a1,a5
    802030e4:	b54ff0ef          	jal	80202438 <log_vformat>
    802030e8:	00050793          	mv	a5,a0
    802030ec:	00078713          	mv	a4,a5
    802030f0:	ecc42783          	lw	a5,-308(s0)
    802030f4:	00f707bb          	addw	a5,a4,a5
    802030f8:	0007879b          	sext.w	a5,a5
    802030fc:	ecf42623          	sw	a5,-308(s0)
    80203100:	ecc42703          	lw	a4,-308(s0)
    80203104:	0fe00793          	li	a5,254
    80203108:	02e7c263          	blt	a5,a4,8020312c <log_vprintf+0x354>
    8020310c:	ecc42783          	lw	a5,-308(s0)
    80203110:	0017871b          	addiw	a4,a5,1
    80203114:	0007071b          	sext.w	a4,a4
    80203118:	ece42623          	sw	a4,-308(s0)
    8020311c:	ff078793          	addi	a5,a5,-16
    80203120:	008787b3          	add	a5,a5,s0
    80203124:	00a00713          	li	a4,10
    80203128:	eee78023          	sb	a4,-288(a5)
    8020312c:	ecc42783          	lw	a5,-308(s0)
    80203130:	ff078793          	addi	a5,a5,-16
    80203134:	008787b3          	add	a5,a5,s0
    80203138:	ee078023          	sb	zero,-288(a5)
    8020313c:	ecc42783          	lw	a5,-308(s0)
    80203140:	00078713          	mv	a4,a5
    80203144:	ed040793          	addi	a5,s0,-304
    80203148:	00070593          	mv	a1,a4
    8020314c:	00078513          	mv	a0,a5
    80203150:	b49ff0ef          	jal	80202c98 <ring_write>
    80203154:	0000c797          	auipc	a5,0xc
    80203158:	7bc78793          	addi	a5,a5,1980 # 8020f910 <s_write_fn>
    8020315c:	0007b783          	ld	a5,0(a5)
    80203160:	02078463          	beqz	a5,80203188 <log_vprintf+0x3b0>
    80203164:	0000c797          	auipc	a5,0xc
    80203168:	7ac78793          	addi	a5,a5,1964 # 8020f910 <s_write_fn>
    8020316c:	0007b783          	ld	a5,0(a5)
    80203170:	ecc42703          	lw	a4,-308(s0)
    80203174:	00070693          	mv	a3,a4
    80203178:	ed040713          	addi	a4,s0,-304
    8020317c:	00068593          	mv	a1,a3
    80203180:	00070513          	mv	a0,a4
    80203184:	000780e7          	jalr	a5
    80203188:	ecc42783          	lw	a5,-308(s0)
    8020318c:	00078513          	mv	a0,a5
    80203190:	16813083          	ld	ra,360(sp)
    80203194:	16013403          	ld	s0,352(sp)
    80203198:	17010113          	addi	sp,sp,368
    8020319c:	00008067          	ret

00000000802031a0 <log_printf>:
    802031a0:	f9010113          	addi	sp,sp,-112
    802031a4:	04113423          	sd	ra,72(sp)
    802031a8:	04813023          	sd	s0,64(sp)
    802031ac:	05010413          	addi	s0,sp,80
    802031b0:	fcb43823          	sd	a1,-48(s0)
    802031b4:	fcd43423          	sd	a3,-56(s0)
    802031b8:	fce43023          	sd	a4,-64(s0)
    802031bc:	00f43423          	sd	a5,8(s0)
    802031c0:	01043823          	sd	a6,16(s0)
    802031c4:	01143c23          	sd	a7,24(s0)
    802031c8:	00050793          	mv	a5,a0
    802031cc:	fcf42e23          	sw	a5,-36(s0)
    802031d0:	00060793          	mv	a5,a2
    802031d4:	fcf42c23          	sw	a5,-40(s0)
    802031d8:	02040793          	addi	a5,s0,32
    802031dc:	faf43c23          	sd	a5,-72(s0)
    802031e0:	fb843783          	ld	a5,-72(s0)
    802031e4:	fe878793          	addi	a5,a5,-24
    802031e8:	fef43023          	sd	a5,-32(s0)
    802031ec:	fe043783          	ld	a5,-32(s0)
    802031f0:	fd842603          	lw	a2,-40(s0)
    802031f4:	fdc42503          	lw	a0,-36(s0)
    802031f8:	fc043703          	ld	a4,-64(s0)
    802031fc:	fc843683          	ld	a3,-56(s0)
    80203200:	fd043583          	ld	a1,-48(s0)
    80203204:	bd5ff0ef          	jal	80202dd8 <log_vprintf>
    80203208:	00050793          	mv	a5,a0
    8020320c:	fef42623          	sw	a5,-20(s0)
    80203210:	fec42783          	lw	a5,-20(s0)
    80203214:	00078513          	mv	a0,a5
    80203218:	04813083          	ld	ra,72(sp)
    8020321c:	04013403          	ld	s0,64(sp)
    80203220:	07010113          	addi	sp,sp,112
    80203224:	00008067          	ret

0000000080203228 <log_ring_size>:
    80203228:	ff010113          	addi	sp,sp,-16
    8020322c:	00113423          	sd	ra,8(sp)
    80203230:	00813023          	sd	s0,0(sp)
    80203234:	01010413          	addi	s0,sp,16
    80203238:	0000d797          	auipc	a5,0xd
    8020323c:	ef078793          	addi	a5,a5,-272 # 80210128 <s_ring_size>
    80203240:	0007b783          	ld	a5,0(a5)
    80203244:	00078513          	mv	a0,a5
    80203248:	00813083          	ld	ra,8(sp)
    8020324c:	00013403          	ld	s0,0(sp)
    80203250:	01010113          	addi	sp,sp,16
    80203254:	00008067          	ret

0000000080203258 <log_ring_capacity>:
    80203258:	ff010113          	addi	sp,sp,-16
    8020325c:	00113423          	sd	ra,8(sp)
    80203260:	00813023          	sd	s0,0(sp)
    80203264:	01010413          	addi	s0,sp,16
    80203268:	000017b7          	lui	a5,0x1
    8020326c:	80078793          	addi	a5,a5,-2048 # 800 <TF_SIZE+0x6e0>
    80203270:	00078513          	mv	a0,a5
    80203274:	00813083          	ld	ra,8(sp)
    80203278:	00013403          	ld	s0,0(sp)
    8020327c:	01010113          	addi	sp,sp,16
    80203280:	00008067          	ret

0000000080203284 <log_ring_clear>:
    80203284:	ff010113          	addi	sp,sp,-16
    80203288:	00113423          	sd	ra,8(sp)
    8020328c:	00813023          	sd	s0,0(sp)
    80203290:	01010413          	addi	s0,sp,16
    80203294:	0000d797          	auipc	a5,0xd
    80203298:	e9478793          	addi	a5,a5,-364 # 80210128 <s_ring_size>
    8020329c:	0007b023          	sd	zero,0(a5)
    802032a0:	00000013          	nop
    802032a4:	00813083          	ld	ra,8(sp)
    802032a8:	00013403          	ld	s0,0(sp)
    802032ac:	01010113          	addi	sp,sp,16
    802032b0:	00008067          	ret

00000000802032b4 <ring_peek_internal>:
    802032b4:	fc010113          	addi	sp,sp,-64
    802032b8:	02113c23          	sd	ra,56(sp)
    802032bc:	02813823          	sd	s0,48(sp)
    802032c0:	04010413          	addi	s0,sp,64
    802032c4:	fca43423          	sd	a0,-56(s0)
    802032c8:	fcb43023          	sd	a1,-64(s0)
    802032cc:	0000d797          	auipc	a5,0xd
    802032d0:	e5c78793          	addi	a5,a5,-420 # 80210128 <s_ring_size>
    802032d4:	0007b783          	ld	a5,0(a5)
    802032d8:	00078663          	beqz	a5,802032e4 <ring_peek_internal+0x30>
    802032dc:	fc043783          	ld	a5,-64(s0)
    802032e0:	00079663          	bnez	a5,802032ec <ring_peek_internal+0x38>
    802032e4:	00000793          	li	a5,0
    802032e8:	0a00006f          	j	80203388 <ring_peek_internal+0xd4>
    802032ec:	0000d797          	auipc	a5,0xd
    802032f0:	e3c78793          	addi	a5,a5,-452 # 80210128 <s_ring_size>
    802032f4:	0007b703          	ld	a4,0(a5)
    802032f8:	fc043783          	ld	a5,-64(s0)
    802032fc:	00f77463          	bgeu	a4,a5,80203304 <ring_peek_internal+0x50>
    80203300:	00070793          	mv	a5,a4
    80203304:	fef43023          	sd	a5,-32(s0)
    80203308:	0000d797          	auipc	a5,0xd
    8020330c:	e1878793          	addi	a5,a5,-488 # 80210120 <s_ring_head>
    80203310:	0007b703          	ld	a4,0(a5)
    80203314:	0000d797          	auipc	a5,0xd
    80203318:	e1478793          	addi	a5,a5,-492 # 80210128 <s_ring_size>
    8020331c:	0007b783          	ld	a5,0(a5)
    80203320:	40f707b3          	sub	a5,a4,a5
    80203324:	7ff7f793          	andi	a5,a5,2047
    80203328:	fcf43c23          	sd	a5,-40(s0)
    8020332c:	fe043423          	sd	zero,-24(s0)
    80203330:	0480006f          	j	80203378 <ring_peek_internal+0xc4>
    80203334:	fd843703          	ld	a4,-40(s0)
    80203338:	fe843783          	ld	a5,-24(s0)
    8020333c:	00f707b3          	add	a5,a4,a5
    80203340:	7ff7f793          	andi	a5,a5,2047
    80203344:	fcf43823          	sd	a5,-48(s0)
    80203348:	fc843703          	ld	a4,-56(s0)
    8020334c:	fe843783          	ld	a5,-24(s0)
    80203350:	00f707b3          	add	a5,a4,a5
    80203354:	0000c697          	auipc	a3,0xc
    80203358:	5cc68693          	addi	a3,a3,1484 # 8020f920 <s_ring_buf>
    8020335c:	fd043703          	ld	a4,-48(s0)
    80203360:	00e68733          	add	a4,a3,a4
    80203364:	00074703          	lbu	a4,0(a4)
    80203368:	00e78023          	sb	a4,0(a5)
    8020336c:	fe843783          	ld	a5,-24(s0)
    80203370:	00178793          	addi	a5,a5,1
    80203374:	fef43423          	sd	a5,-24(s0)
    80203378:	fe843703          	ld	a4,-24(s0)
    8020337c:	fe043783          	ld	a5,-32(s0)
    80203380:	faf76ae3          	bltu	a4,a5,80203334 <ring_peek_internal+0x80>
    80203384:	fe043783          	ld	a5,-32(s0)
    80203388:	00078513          	mv	a0,a5
    8020338c:	03813083          	ld	ra,56(sp)
    80203390:	03013403          	ld	s0,48(sp)
    80203394:	04010113          	addi	sp,sp,64
    80203398:	00008067          	ret

000000008020339c <log_ring_peek>:
    8020339c:	fd010113          	addi	sp,sp,-48
    802033a0:	02113423          	sd	ra,40(sp)
    802033a4:	02813023          	sd	s0,32(sp)
    802033a8:	03010413          	addi	s0,sp,48
    802033ac:	fca43c23          	sd	a0,-40(s0)
    802033b0:	fcb43823          	sd	a1,-48(s0)
    802033b4:	fd043583          	ld	a1,-48(s0)
    802033b8:	fd843503          	ld	a0,-40(s0)
    802033bc:	ef9ff0ef          	jal	802032b4 <ring_peek_internal>
    802033c0:	fea43423          	sd	a0,-24(s0)
    802033c4:	fe843783          	ld	a5,-24(s0)
    802033c8:	00078513          	mv	a0,a5
    802033cc:	02813083          	ld	ra,40(sp)
    802033d0:	02013403          	ld	s0,32(sp)
    802033d4:	03010113          	addi	sp,sp,48
    802033d8:	00008067          	ret

00000000802033dc <log_ring_read>:
    802033dc:	fd010113          	addi	sp,sp,-48
    802033e0:	02113423          	sd	ra,40(sp)
    802033e4:	02813023          	sd	s0,32(sp)
    802033e8:	03010413          	addi	s0,sp,48
    802033ec:	fca43c23          	sd	a0,-40(s0)
    802033f0:	fcb43823          	sd	a1,-48(s0)
    802033f4:	fd043583          	ld	a1,-48(s0)
    802033f8:	fd843503          	ld	a0,-40(s0)
    802033fc:	eb9ff0ef          	jal	802032b4 <ring_peek_internal>
    80203400:	fea43423          	sd	a0,-24(s0)
    80203404:	fe843783          	ld	a5,-24(s0)
    80203408:	02078263          	beqz	a5,8020342c <log_ring_read+0x50>
    8020340c:	0000d797          	auipc	a5,0xd
    80203410:	d1c78793          	addi	a5,a5,-740 # 80210128 <s_ring_size>
    80203414:	0007b703          	ld	a4,0(a5)
    80203418:	fe843783          	ld	a5,-24(s0)
    8020341c:	40f70733          	sub	a4,a4,a5
    80203420:	0000d797          	auipc	a5,0xd
    80203424:	d0878793          	addi	a5,a5,-760 # 80210128 <s_ring_size>
    80203428:	00e7b023          	sd	a4,0(a5)
    8020342c:	fe843783          	ld	a5,-24(s0)
    80203430:	00078513          	mv	a0,a5
    80203434:	02813083          	ld	ra,40(sp)
    80203438:	02013403          	ld	s0,32(sp)
    8020343c:	03010113          	addi	sp,sp,48
    80203440:	00008067          	ret

0000000080203444 <log_hexdump>:
    80203444:	f3010113          	addi	sp,sp,-208
    80203448:	0c113423          	sd	ra,200(sp)
    8020344c:	0c813023          	sd	s0,192(sp)
    80203450:	0d010413          	addi	s0,sp,208
    80203454:	f6b43023          	sd	a1,-160(s0)
    80203458:	f4d43c23          	sd	a3,-168(s0)
    8020345c:	f4e43823          	sd	a4,-176(s0)
    80203460:	f4f43423          	sd	a5,-184(s0)
    80203464:	f5043023          	sd	a6,-192(s0)
    80203468:	00050793          	mv	a5,a0
    8020346c:	f6f42623          	sw	a5,-148(s0)
    80203470:	00060793          	mv	a5,a2
    80203474:	f6f42423          	sw	a5,-152(s0)
    80203478:	f6c42783          	lw	a5,-148(s0)
    8020347c:	0007879b          	sext.w	a5,a5
    80203480:	1e078c63          	beqz	a5,80203678 <log_hexdump+0x234>
    80203484:	00000797          	auipc	a5,0x0
    80203488:	6fc78793          	addi	a5,a5,1788 # 80203b80 <s_log_level>
    8020348c:	0007a783          	lw	a5,0(a5)
    80203490:	0007879b          	sext.w	a5,a5
    80203494:	f6c42703          	lw	a4,-148(s0)
    80203498:	0007071b          	sext.w	a4,a4
    8020349c:	1ce7ee63          	bltu	a5,a4,80203678 <log_hexdump+0x234>
    802034a0:	f5043783          	ld	a5,-176(s0)
    802034a4:	fcf43423          	sd	a5,-56(s0)
    802034a8:	fe043423          	sd	zero,-24(s0)
    802034ac:	1bc0006f          	j	80203668 <log_hexdump+0x224>
    802034b0:	f4843703          	ld	a4,-184(s0)
    802034b4:	fe843783          	ld	a5,-24(s0)
    802034b8:	40f707b3          	sub	a5,a4,a5
    802034bc:	fef43023          	sd	a5,-32(s0)
    802034c0:	fe043703          	ld	a4,-32(s0)
    802034c4:	01000793          	li	a5,16
    802034c8:	00e7f663          	bgeu	a5,a4,802034d4 <log_hexdump+0x90>
    802034cc:	01000793          	li	a5,16
    802034d0:	fef43023          	sd	a5,-32(s0)
    802034d4:	fc042e23          	sw	zero,-36(s0)
    802034d8:	fc043823          	sd	zero,-48(s0)
    802034dc:	1000006f          	j	802035dc <log_hexdump+0x198>
    802034e0:	fe843703          	ld	a4,-24(s0)
    802034e4:	fd043783          	ld	a5,-48(s0)
    802034e8:	00f707b3          	add	a5,a4,a5
    802034ec:	fc843703          	ld	a4,-56(s0)
    802034f0:	00f707b3          	add	a5,a4,a5
    802034f4:	0007c783          	lbu	a5,0(a5)
    802034f8:	fcf403a3          	sb	a5,-57(s0)
    802034fc:	fdc42783          	lw	a5,-36(s0)
    80203500:	0007871b          	sext.w	a4,a5
    80203504:	02d00793          	li	a5,45
    80203508:	08e7cc63          	blt	a5,a4,802035a0 <log_hexdump+0x15c>
    8020350c:	fc744783          	lbu	a5,-57(s0)
    80203510:	0047d79b          	srliw	a5,a5,0x4
    80203514:	0ff7f793          	zext.b	a5,a5
    80203518:	0007879b          	sext.w	a5,a5
    8020351c:	00f7f793          	andi	a5,a5,15
    80203520:	0007871b          	sext.w	a4,a5
    80203524:	fdc42783          	lw	a5,-36(s0)
    80203528:	0017869b          	addiw	a3,a5,1
    8020352c:	fcd42e23          	sw	a3,-36(s0)
    80203530:	00000697          	auipc	a3,0x0
    80203534:	5c868693          	addi	a3,a3,1480 # 80203af8 <hex_digits.0>
    80203538:	00e68733          	add	a4,a3,a4
    8020353c:	00074703          	lbu	a4,0(a4)
    80203540:	ff078793          	addi	a5,a5,-16
    80203544:	008787b3          	add	a5,a5,s0
    80203548:	fae78023          	sb	a4,-96(a5)
    8020354c:	fc744783          	lbu	a5,-57(s0)
    80203550:	0007879b          	sext.w	a5,a5
    80203554:	00f7f793          	andi	a5,a5,15
    80203558:	0007871b          	sext.w	a4,a5
    8020355c:	fdc42783          	lw	a5,-36(s0)
    80203560:	0017869b          	addiw	a3,a5,1
    80203564:	fcd42e23          	sw	a3,-36(s0)
    80203568:	00000697          	auipc	a3,0x0
    8020356c:	59068693          	addi	a3,a3,1424 # 80203af8 <hex_digits.0>
    80203570:	00e68733          	add	a4,a3,a4
    80203574:	00074703          	lbu	a4,0(a4)
    80203578:	ff078793          	addi	a5,a5,-16
    8020357c:	008787b3          	add	a5,a5,s0
    80203580:	fae78023          	sb	a4,-96(a5)
    80203584:	fdc42783          	lw	a5,-36(s0)
    80203588:	0017871b          	addiw	a4,a5,1
    8020358c:	fce42e23          	sw	a4,-36(s0)
    80203590:	ff078793          	addi	a5,a5,-16
    80203594:	008787b3          	add	a5,a5,s0
    80203598:	02000713          	li	a4,32
    8020359c:	fae78023          	sb	a4,-96(a5)
    802035a0:	fc744783          	lbu	a5,-57(s0)
    802035a4:	00078513          	mv	a0,a5
    802035a8:	c54ff0ef          	jal	802029fc <log_isprint>
    802035ac:	00050793          	mv	a5,a0
    802035b0:	00078663          	beqz	a5,802035bc <log_hexdump+0x178>
    802035b4:	fc744783          	lbu	a5,-57(s0)
    802035b8:	0080006f          	j	802035c0 <log_hexdump+0x17c>
    802035bc:	02e00793          	li	a5,46
    802035c0:	fd043703          	ld	a4,-48(s0)
    802035c4:	ff070713          	addi	a4,a4,-16
    802035c8:	00870733          	add	a4,a4,s0
    802035cc:	f8f70423          	sb	a5,-120(a4)
    802035d0:	fd043783          	ld	a5,-48(s0)
    802035d4:	00178793          	addi	a5,a5,1
    802035d8:	fcf43823          	sd	a5,-48(s0)
    802035dc:	fd043703          	ld	a4,-48(s0)
    802035e0:	fe043783          	ld	a5,-32(s0)
    802035e4:	eef76ee3          	bltu	a4,a5,802034e0 <log_hexdump+0x9c>
    802035e8:	fdc42783          	lw	a5,-36(s0)
    802035ec:	ff078793          	addi	a5,a5,-16
    802035f0:	008787b3          	add	a5,a5,s0
    802035f4:	fa078023          	sb	zero,-96(a5)
    802035f8:	fe043783          	ld	a5,-32(s0)
    802035fc:	ff078793          	addi	a5,a5,-16
    80203600:	008787b3          	add	a5,a5,s0
    80203604:	f8078423          	sb	zero,-120(a5)
    80203608:	f4043783          	ld	a5,-192(s0)
    8020360c:	00078663          	beqz	a5,80203618 <log_hexdump+0x1d4>
    80203610:	f4043783          	ld	a5,-192(s0)
    80203614:	00c0006f          	j	80203620 <log_hexdump+0x1dc>
    80203618:	00000797          	auipc	a5,0x0
    8020361c:	4c878793          	addi	a5,a5,1224 # 80203ae0 <__func__.0+0x58>
    80203620:	fe843703          	ld	a4,-24(s0)
    80203624:	0007069b          	sext.w	a3,a4
    80203628:	f9040593          	addi	a1,s0,-112
    8020362c:	f6842603          	lw	a2,-152(s0)
    80203630:	f6c42503          	lw	a0,-148(s0)
    80203634:	f7840713          	addi	a4,s0,-136
    80203638:	00e13023          	sd	a4,0(sp)
    8020363c:	00058893          	mv	a7,a1
    80203640:	00068813          	mv	a6,a3
    80203644:	00000717          	auipc	a4,0x0
    80203648:	4a470713          	addi	a4,a4,1188 # 80203ae8 <__func__.0+0x60>
    8020364c:	f5843683          	ld	a3,-168(s0)
    80203650:	f6043583          	ld	a1,-160(s0)
    80203654:	b4dff0ef          	jal	802031a0 <log_printf>
    80203658:	fe843703          	ld	a4,-24(s0)
    8020365c:	fe043783          	ld	a5,-32(s0)
    80203660:	00f707b3          	add	a5,a4,a5
    80203664:	fef43423          	sd	a5,-24(s0)
    80203668:	fe843703          	ld	a4,-24(s0)
    8020366c:	f4843783          	ld	a5,-184(s0)
    80203670:	e4f760e3          	bltu	a4,a5,802034b0 <log_hexdump+0x6c>
    80203674:	0080006f          	j	8020367c <log_hexdump+0x238>
    80203678:	00000013          	nop
    8020367c:	0c813083          	ld	ra,200(sp)
    80203680:	0c013403          	ld	s0,192(sp)
    80203684:	0d010113          	addi	sp,sp,208
    80203688:	00008067          	ret

000000008020368c <log_platform_writer>:
    8020368c:	fe010113          	addi	sp,sp,-32
    80203690:	00113c23          	sd	ra,24(sp)
    80203694:	00813823          	sd	s0,16(sp)
    80203698:	02010413          	addi	s0,sp,32
    8020369c:	fea43423          	sd	a0,-24(s0)
    802036a0:	feb43023          	sd	a1,-32(s0)
    802036a4:	fe043583          	ld	a1,-32(s0)
    802036a8:	fe843503          	ld	a0,-24(s0)
    802036ac:	d79fc0ef          	jal	80200424 <platform_write>
    802036b0:	00000013          	nop
    802036b4:	01813083          	ld	ra,24(sp)
    802036b8:	01013403          	ld	s0,16(sp)
    802036bc:	02010113          	addi	sp,sp,32
    802036c0:	00008067          	ret

00000000802036c4 <log_timestamp_ms>:
    802036c4:	fe010113          	addi	sp,sp,-32
    802036c8:	00113c23          	sd	ra,24(sp)
    802036cc:	00813823          	sd	s0,16(sp)
    802036d0:	02010413          	addi	s0,sp,32
    802036d4:	e39fc0ef          	jal	8020050c <platform_time_now>
    802036d8:	fea43423          	sd	a0,-24(s0)
    802036dc:	fe843703          	ld	a4,-24(s0)
    802036e0:	00000797          	auipc	a5,0x0
    802036e4:	49078793          	addi	a5,a5,1168 # 80203b70 <__func__.0+0x18>
    802036e8:	0007b783          	ld	a5,0(a5)
    802036ec:	02f737b3          	mulhu	a5,a4,a5
    802036f0:	00b7d793          	srli	a5,a5,0xb
    802036f4:	0007879b          	sext.w	a5,a5
    802036f8:	00078513          	mv	a0,a5
    802036fc:	01813083          	ld	ra,24(sp)
    80203700:	01013403          	ld	s0,16(sp)
    80203704:	02010113          	addi	sp,sp,32
    80203708:	00008067          	ret

000000008020370c <log_init_baremetal>:
    8020370c:	ff010113          	addi	sp,sp,-16
    80203710:	00113423          	sd	ra,8(sp)
    80203714:	00813023          	sd	s0,0(sp)
    80203718:	01010413          	addi	s0,sp,16
    8020371c:	00000517          	auipc	a0,0x0
    80203720:	f7050513          	addi	a0,a0,-144 # 8020368c <log_platform_writer>
    80203724:	b30ff0ef          	jal	80202a54 <log_init>
    80203728:	00400513          	li	a0,4
    8020372c:	b60ff0ef          	jal	80202a8c <log_set_level>
    80203730:	00100513          	li	a0,1
    80203734:	bc8ff0ef          	jal	80202afc <log_set_path_mode>
    80203738:	00000517          	auipc	a0,0x0
    8020373c:	f8c50513          	addi	a0,a0,-116 # 802036c4 <log_timestamp_ms>
    80203740:	d20ff0ef          	jal	80202c60 <log_set_timestamp_fn>
    80203744:	b84ff0ef          	jal	80202ac8 <log_get_level>
    80203748:	00050793          	mv	a5,a0
    8020374c:	00000717          	auipc	a4,0x0
    80203750:	3c470713          	addi	a4,a4,964 # 80203b10 <hex_digits.0+0x18>
    80203754:	00000697          	auipc	a3,0x0
    80203758:	40468693          	addi	a3,a3,1028 # 80203b58 <__func__.0>
    8020375c:	02500613          	li	a2,37
    80203760:	00000597          	auipc	a1,0x0
    80203764:	3e058593          	addi	a1,a1,992 # 80203b40 <hex_digits.0+0x48>
    80203768:	00300513          	li	a0,3
    8020376c:	a35ff0ef          	jal	802031a0 <log_printf>
    80203770:	00000013          	nop
    80203774:	00813083          	ld	ra,8(sp)
    80203778:	00013403          	ld	s0,0(sp)
    8020377c:	01010113          	addi	sp,sp,16
    80203780:	00008067          	ret
